ARM GAS  C:\Users\matth\AppData\Local\Temp\ccy9EQ3E.s 			page 1


   1              		.cpu cortex-m7
   2              		.eabi_attribute 28, 1
   3              		.eabi_attribute 20, 1
   4              		.eabi_attribute 21, 1
   5              		.eabi_attribute 23, 3
   6              		.eabi_attribute 24, 1
   7              		.eabi_attribute 25, 1
   8              		.eabi_attribute 26, 1
   9              		.eabi_attribute 30, 2
  10              		.eabi_attribute 34, 1
  11              		.eabi_attribute 18, 4
  12              		.file	"test1.cpp"
  13              		.text
  14              	.Ltext0:
  15              		.cfi_sections	.debug_frame
  16              		.section	.text._ZN5daisy9DaisySeedD2Ev,"axG",%progbits,_ZN5daisy9DaisySeedD5Ev,comdat
  17              		.align	1
  18              		.p2align 2,,3
  19              		.weak	_ZN5daisy9DaisySeedD2Ev
  20              		.arch armv7e-m
  21              		.syntax unified
  22              		.thumb
  23              		.thumb_func
  24              		.fpu fpv5-d16
  26              	_ZN5daisy9DaisySeedD2Ev:
  27              	.LVL0:
  28              	.LFB2528:
  29              		.file 1 "../DaisyExamples/libDaisy//src/daisy_seed.h"
   1:../DaisyExamples/libDaisy//src/daisy_seed.h **** #pragma once
   2:../DaisyExamples/libDaisy//src/daisy_seed.h **** #ifndef DSY_SEED_H
   3:../DaisyExamples/libDaisy//src/daisy_seed.h **** #define DSY_SEED_H
   4:../DaisyExamples/libDaisy//src/daisy_seed.h **** 
   5:../DaisyExamples/libDaisy//src/daisy_seed.h **** #include "daisy.h"
   6:../DaisyExamples/libDaisy//src/daisy_seed.h **** 
   7:../DaisyExamples/libDaisy//src/daisy_seed.h **** //Uncomment this out if you're still using the rev2 hardware
   8:../DaisyExamples/libDaisy//src/daisy_seed.h **** //#define SEED_REV2
   9:../DaisyExamples/libDaisy//src/daisy_seed.h **** 
  10:../DaisyExamples/libDaisy//src/daisy_seed.h **** namespace daisy
  11:../DaisyExamples/libDaisy//src/daisy_seed.h **** {
  12:../DaisyExamples/libDaisy//src/daisy_seed.h **** /**
  13:../DaisyExamples/libDaisy//src/daisy_seed.h ****    @brief This is the higher-level interface for the Daisy board. \n 
  14:../DaisyExamples/libDaisy//src/daisy_seed.h ****     All basic peripheral configuration/initialization is setup here. \n
  15:../DaisyExamples/libDaisy//src/daisy_seed.h **** 
  16:../DaisyExamples/libDaisy//src/daisy_seed.h ****    @ingroup boards
  17:../DaisyExamples/libDaisy//src/daisy_seed.h **** */
  18:../DaisyExamples/libDaisy//src/daisy_seed.h **** class DaisySeed
  19:../DaisyExamples/libDaisy//src/daisy_seed.h **** {
  20:../DaisyExamples/libDaisy//src/daisy_seed.h ****   public:
  21:../DaisyExamples/libDaisy//src/daisy_seed.h ****     DaisySeed() {}
  22:../DaisyExamples/libDaisy//src/daisy_seed.h ****     ~DaisySeed() {}
  30              		.loc 1 22 5 view -0
  31              		.cfi_startproc
  32              		@ args = 0, pretend = 0, frame = 0
  33              		@ frame_needed = 0, uses_anonymous_args = 0
  34              		@ link register save eliminated.
  35              	.LBB190:
  36              	.LBI190:
ARM GAS  C:\Users\matth\AppData\Local\Temp\ccy9EQ3E.s 			page 2


  37              		.file 2 "../DaisyExamples/libDaisy//src/sys/system.h"
   1:../DaisyExamples/libDaisy//src/sys/system.h **** #ifndef DSY_SYSTEM_H
   2:../DaisyExamples/libDaisy//src/sys/system.h **** #define DSY_SYSTEM_H
   3:../DaisyExamples/libDaisy//src/sys/system.h **** 
   4:../DaisyExamples/libDaisy//src/sys/system.h **** #ifndef UNIT_TEST // for unit tests, a dummy implementation is provided below
   5:../DaisyExamples/libDaisy//src/sys/system.h **** 
   6:../DaisyExamples/libDaisy//src/sys/system.h **** #include <cstdint>
   7:../DaisyExamples/libDaisy//src/sys/system.h **** #include "per/tim.h"
   8:../DaisyExamples/libDaisy//src/sys/system.h **** 
   9:../DaisyExamples/libDaisy//src/sys/system.h **** namespace daisy
  10:../DaisyExamples/libDaisy//src/sys/system.h **** {
  11:../DaisyExamples/libDaisy//src/sys/system.h **** /** A handle for interacting with the Core System. 
  12:../DaisyExamples/libDaisy//src/sys/system.h ****  ** This includes the Clock tree, MPU, global DMA initialization,
  13:../DaisyExamples/libDaisy//src/sys/system.h ****  ** cache handling, and any other necessary global initiailzation
  14:../DaisyExamples/libDaisy//src/sys/system.h ****  **
  15:../DaisyExamples/libDaisy//src/sys/system.h ****  ** @author shensley
  16:../DaisyExamples/libDaisy//src/sys/system.h ****  ** @ingroup system
  17:../DaisyExamples/libDaisy//src/sys/system.h ****  */
  18:../DaisyExamples/libDaisy//src/sys/system.h **** class System
  19:../DaisyExamples/libDaisy//src/sys/system.h **** {
  20:../DaisyExamples/libDaisy//src/sys/system.h ****   public:
  21:../DaisyExamples/libDaisy//src/sys/system.h ****     /** Contains settings for initializing the System */
  22:../DaisyExamples/libDaisy//src/sys/system.h ****     struct Config
  23:../DaisyExamples/libDaisy//src/sys/system.h ****     {
  24:../DaisyExamples/libDaisy//src/sys/system.h ****         /** Specifies the system clock frequency that feeds APB/AHB clocks, etc. */
  25:../DaisyExamples/libDaisy//src/sys/system.h ****         enum class SysClkFreq
  26:../DaisyExamples/libDaisy//src/sys/system.h ****         {
  27:../DaisyExamples/libDaisy//src/sys/system.h ****             FREQ_400MHZ,
  28:../DaisyExamples/libDaisy//src/sys/system.h ****             FREQ_480MHZ,
  29:../DaisyExamples/libDaisy//src/sys/system.h ****         };
  30:../DaisyExamples/libDaisy//src/sys/system.h **** 
  31:../DaisyExamples/libDaisy//src/sys/system.h ****         /** Method to call on the struct to set to defaults
  32:../DaisyExamples/libDaisy//src/sys/system.h ****          ** CPU Freq set to 400MHz
  33:../DaisyExamples/libDaisy//src/sys/system.h ****          ** Cache Enabled 
  34:../DaisyExamples/libDaisy//src/sys/system.h ****          ** */
  35:../DaisyExamples/libDaisy//src/sys/system.h ****         void Defaults()
  36:../DaisyExamples/libDaisy//src/sys/system.h ****         {
  37:../DaisyExamples/libDaisy//src/sys/system.h ****             cpu_freq    = SysClkFreq::FREQ_400MHZ;
  38:../DaisyExamples/libDaisy//src/sys/system.h ****             use_dcache  = true;
  39:../DaisyExamples/libDaisy//src/sys/system.h ****             use_icache  = true;
  40:../DaisyExamples/libDaisy//src/sys/system.h ****             skip_clocks = false;
  41:../DaisyExamples/libDaisy//src/sys/system.h ****         }
  42:../DaisyExamples/libDaisy//src/sys/system.h **** 
  43:../DaisyExamples/libDaisy//src/sys/system.h ****         /** Method to call on the struct to set to boost mode:
  44:../DaisyExamples/libDaisy//src/sys/system.h ****          ** CPU Freq set to 480MHz
  45:../DaisyExamples/libDaisy//src/sys/system.h ****          ** Cache Enabled 
  46:../DaisyExamples/libDaisy//src/sys/system.h ****          ** */
  47:../DaisyExamples/libDaisy//src/sys/system.h ****         void Boost()
  48:../DaisyExamples/libDaisy//src/sys/system.h ****         {
  49:../DaisyExamples/libDaisy//src/sys/system.h ****             cpu_freq    = SysClkFreq::FREQ_480MHZ;
  50:../DaisyExamples/libDaisy//src/sys/system.h ****             use_dcache  = true;
  51:../DaisyExamples/libDaisy//src/sys/system.h ****             use_icache  = true;
  52:../DaisyExamples/libDaisy//src/sys/system.h ****             skip_clocks = false;
  53:../DaisyExamples/libDaisy//src/sys/system.h ****         }
  54:../DaisyExamples/libDaisy//src/sys/system.h **** 
  55:../DaisyExamples/libDaisy//src/sys/system.h ****         SysClkFreq cpu_freq;
  56:../DaisyExamples/libDaisy//src/sys/system.h ****         bool       use_dcache;
ARM GAS  C:\Users\matth\AppData\Local\Temp\ccy9EQ3E.s 			page 3


  57:../DaisyExamples/libDaisy//src/sys/system.h ****         bool       use_icache;
  58:../DaisyExamples/libDaisy//src/sys/system.h ****         bool       skip_clocks;
  59:../DaisyExamples/libDaisy//src/sys/system.h ****     };
  60:../DaisyExamples/libDaisy//src/sys/system.h **** 
  61:../DaisyExamples/libDaisy//src/sys/system.h ****     /** Describes the different regions of memory available to the Daisy
  62:../DaisyExamples/libDaisy//src/sys/system.h ****      * 
  63:../DaisyExamples/libDaisy//src/sys/system.h ****      */
  64:../DaisyExamples/libDaisy//src/sys/system.h ****     enum MemoryRegion
  65:../DaisyExamples/libDaisy//src/sys/system.h ****     {
  66:../DaisyExamples/libDaisy//src/sys/system.h ****         INTERNAL_FLASH = 0,
  67:../DaisyExamples/libDaisy//src/sys/system.h ****         ITCMRAM,
  68:../DaisyExamples/libDaisy//src/sys/system.h ****         DTCMRAM,
  69:../DaisyExamples/libDaisy//src/sys/system.h ****         SRAM_D1,
  70:../DaisyExamples/libDaisy//src/sys/system.h ****         SRAM_D2,
  71:../DaisyExamples/libDaisy//src/sys/system.h ****         SRAM_D3,
  72:../DaisyExamples/libDaisy//src/sys/system.h ****         SDRAM,
  73:../DaisyExamples/libDaisy//src/sys/system.h ****         QSPI,
  74:../DaisyExamples/libDaisy//src/sys/system.h ****         INVALID_ADDRESS,
  75:../DaisyExamples/libDaisy//src/sys/system.h ****     };
  76:../DaisyExamples/libDaisy//src/sys/system.h **** 
  77:../DaisyExamples/libDaisy//src/sys/system.h ****     System() {}
  78:../DaisyExamples/libDaisy//src/sys/system.h ****     ~System() {}
  38              		.loc 2 78 5 view .LVU1
  39              		.loc 2 78 5 is_stmt 0 view .LVU2
  40              	.LBE190:
  41              	.LBB191:
  42              	.LBI191:
  43              		.file 3 "../DaisyExamples/libDaisy//src/hid/usb.h"
   1:../DaisyExamples/libDaisy//src/hid/usb.h **** #pragma once
   2:../DaisyExamples/libDaisy//src/hid/usb.h **** #ifndef DSY_HID_USB_H
   3:../DaisyExamples/libDaisy//src/hid/usb.h **** #define DSY_HID_USB_H
   4:../DaisyExamples/libDaisy//src/hid/usb.h **** #include <stdint.h>
   5:../DaisyExamples/libDaisy//src/hid/usb.h **** #include <stdlib.h>
   6:../DaisyExamples/libDaisy//src/hid/usb.h **** 
   7:../DaisyExamples/libDaisy//src/hid/usb.h **** namespace daisy
   8:../DaisyExamples/libDaisy//src/hid/usb.h **** /** @addtogroup human_interface
   9:../DaisyExamples/libDaisy//src/hid/usb.h ****     @{
  10:../DaisyExamples/libDaisy//src/hid/usb.h **** */
  11:../DaisyExamples/libDaisy//src/hid/usb.h **** 
  12:../DaisyExamples/libDaisy//src/hid/usb.h **** {
  13:../DaisyExamples/libDaisy//src/hid/usb.h **** /** 
  14:../DaisyExamples/libDaisy//src/hid/usb.h ****     @brief Interface for initializing and using the USB Peripherals on the daisy
  15:../DaisyExamples/libDaisy//src/hid/usb.h ****     @author Stephen Hensley
  16:../DaisyExamples/libDaisy//src/hid/usb.h ****     @date December 2019
  17:../DaisyExamples/libDaisy//src/hid/usb.h **** */
  18:../DaisyExamples/libDaisy//src/hid/usb.h **** class UsbHandle
  19:../DaisyExamples/libDaisy//src/hid/usb.h **** {
  20:../DaisyExamples/libDaisy//src/hid/usb.h ****   public:
  21:../DaisyExamples/libDaisy//src/hid/usb.h ****     /** Return values for USBHandle Functions */
  22:../DaisyExamples/libDaisy//src/hid/usb.h ****     enum class Result
  23:../DaisyExamples/libDaisy//src/hid/usb.h ****     {
  24:../DaisyExamples/libDaisy//src/hid/usb.h ****         OK,
  25:../DaisyExamples/libDaisy//src/hid/usb.h ****         ERR,
  26:../DaisyExamples/libDaisy//src/hid/usb.h ****     };
  27:../DaisyExamples/libDaisy//src/hid/usb.h **** 
  28:../DaisyExamples/libDaisy//src/hid/usb.h ****     /** Specified which of the two USB Peripherals to initialize. */
  29:../DaisyExamples/libDaisy//src/hid/usb.h ****     enum UsbPeriph
ARM GAS  C:\Users\matth\AppData\Local\Temp\ccy9EQ3E.s 			page 4


  30:../DaisyExamples/libDaisy//src/hid/usb.h ****     {
  31:../DaisyExamples/libDaisy//src/hid/usb.h ****         FS_INTERNAL, /**< Internal pin */
  32:../DaisyExamples/libDaisy//src/hid/usb.h ****         FS_EXTERNAL, /**< FS External D+ pin is Pin 38 (GPIO32). FS External D- pin is Pin 37 (GPIO
  33:../DaisyExamples/libDaisy//src/hid/usb.h ****         FS_BOTH,     /**< Both */
  34:../DaisyExamples/libDaisy//src/hid/usb.h ****     };
  35:../DaisyExamples/libDaisy//src/hid/usb.h **** 
  36:../DaisyExamples/libDaisy//src/hid/usb.h **** 
  37:../DaisyExamples/libDaisy//src/hid/usb.h ****     /** Function called upon reception of a buffer */
  38:../DaisyExamples/libDaisy//src/hid/usb.h ****     typedef void (*ReceiveCallback)(uint8_t* buff, uint32_t* len);
  39:../DaisyExamples/libDaisy//src/hid/usb.h **** 
  40:../DaisyExamples/libDaisy//src/hid/usb.h ****     UsbHandle() {}
  41:../DaisyExamples/libDaisy//src/hid/usb.h **** 
  42:../DaisyExamples/libDaisy//src/hid/usb.h ****     ~UsbHandle() {}
  44              		.loc 3 42 5 is_stmt 1 view .LVU3
  45              		.loc 3 42 5 is_stmt 0 view .LVU4
  46              	.LBE191:
  47              	.LBB192:
  48              	.LBI192:
  49              		.file 4 "../DaisyExamples/libDaisy//src/per/adc.h"
   1:../DaisyExamples/libDaisy//src/per/adc.h **** #pragma once
   2:../DaisyExamples/libDaisy//src/per/adc.h **** #ifndef DSY_ADC_H
   3:../DaisyExamples/libDaisy//src/per/adc.h **** #define DSY_ADC_H /**< Macro */
   4:../DaisyExamples/libDaisy//src/per/adc.h **** #include <stdint.h>
   5:../DaisyExamples/libDaisy//src/per/adc.h **** #include <stdlib.h>
   6:../DaisyExamples/libDaisy//src/per/adc.h **** #include "daisy_core.h"
   7:../DaisyExamples/libDaisy//src/per/adc.h **** #include "per/gpio.h"
   8:../DaisyExamples/libDaisy//src/per/adc.h **** 
   9:../DaisyExamples/libDaisy//src/per/adc.h **** #define DSY_ADC_MAX_CHANNELS 16 /**< Maximum number of ADC channels */
  10:../DaisyExamples/libDaisy//src/per/adc.h **** 
  11:../DaisyExamples/libDaisy//src/per/adc.h **** namespace daisy
  12:../DaisyExamples/libDaisy//src/per/adc.h **** {
  13:../DaisyExamples/libDaisy//src/per/adc.h **** /** @addtogroup per_analog
  14:../DaisyExamples/libDaisy//src/per/adc.h ****     @{
  15:../DaisyExamples/libDaisy//src/per/adc.h **** */
  16:../DaisyExamples/libDaisy//src/per/adc.h **** 
  17:../DaisyExamples/libDaisy//src/per/adc.h **** /* While there may not be many configuration options here,
  18:../DaisyExamples/libDaisy//src/per/adc.h **** using a struct like this allows us to add more configuration
  19:../DaisyExamples/libDaisy//src/per/adc.h **** later without breaking existing functionality.
  20:../DaisyExamples/libDaisy//src/per/adc.h **** */
  21:../DaisyExamples/libDaisy//src/per/adc.h **** 
  22:../DaisyExamples/libDaisy//src/per/adc.h **** /** @brief   Configuration Structure for an ADC Channel 
  23:../DaisyExamples/libDaisy//src/per/adc.h ****  *  @details This can be used to configure a a single input, 
  24:../DaisyExamples/libDaisy//src/per/adc.h ****  *           or a multiplexed input, allowing up to 8 inputs on 
  25:../DaisyExamples/libDaisy//src/per/adc.h ****  *           one channel.
  26:../DaisyExamples/libDaisy//src/per/adc.h ****  *  @note    Sharing data lines to multiple muxes _is_ possible, but
  27:../DaisyExamples/libDaisy//src/per/adc.h ****  *           each channel sharing data lines must be set to the maximum
  28:../DaisyExamples/libDaisy//src/per/adc.h ****  *           number of channels, even if some multiplexers have fewer
  29:../DaisyExamples/libDaisy//src/per/adc.h ****  *           inputs connected.
  30:../DaisyExamples/libDaisy//src/per/adc.h **** */
  31:../DaisyExamples/libDaisy//src/per/adc.h **** struct AdcChannelConfig
  32:../DaisyExamples/libDaisy//src/per/adc.h **** {
  33:../DaisyExamples/libDaisy//src/per/adc.h ****     /** Which pin to use for multiplexing */
  34:../DaisyExamples/libDaisy//src/per/adc.h ****     enum MuxPin
  35:../DaisyExamples/libDaisy//src/per/adc.h ****     {
  36:../DaisyExamples/libDaisy//src/per/adc.h ****         MUX_SEL_0,    /**< & */
  37:../DaisyExamples/libDaisy//src/per/adc.h ****         MUX_SEL_1,    /**< & */
  38:../DaisyExamples/libDaisy//src/per/adc.h ****         MUX_SEL_2,    /**< & */
ARM GAS  C:\Users\matth\AppData\Local\Temp\ccy9EQ3E.s 			page 5


  39:../DaisyExamples/libDaisy//src/per/adc.h ****         MUX_SEL_LAST, /**< & */
  40:../DaisyExamples/libDaisy//src/per/adc.h ****     };
  41:../DaisyExamples/libDaisy//src/per/adc.h **** 
  42:../DaisyExamples/libDaisy//src/per/adc.h ****     /** Initializes a single ADC pin as an ADC. 
  43:../DaisyExamples/libDaisy//src/per/adc.h ****     \param pin Pin to init.
  44:../DaisyExamples/libDaisy//src/per/adc.h ****      */
  45:../DaisyExamples/libDaisy//src/per/adc.h ****     void InitSingle(dsy_gpio_pin pin);
  46:../DaisyExamples/libDaisy//src/per/adc.h **** 
  47:../DaisyExamples/libDaisy//src/per/adc.h ****     /** 
  48:../DaisyExamples/libDaisy//src/per/adc.h ****     Initializes a single ADC pin as a Multiplexed ADC.
  49:../DaisyExamples/libDaisy//src/per/adc.h ****     Requires a CD405X Multiplexer connected to the pin.
  50:../DaisyExamples/libDaisy//src/per/adc.h ****     You only need to supply the mux pins that are required,
  51:../DaisyExamples/libDaisy//src/per/adc.h ****     e.g. a 4052 mux would only require mux_0 and mux_1.
  52:../DaisyExamples/libDaisy//src/per/adc.h ****     Internal Callbacks handle the pin addressing.
  53:../DaisyExamples/libDaisy//src/per/adc.h ****     \param mux_channels must be 1-8
  54:../DaisyExamples/libDaisy//src/per/adc.h ****     \param mux_0 First mux pin
  55:../DaisyExamples/libDaisy//src/per/adc.h ****     \param mux_1 Second mux pin
  56:../DaisyExamples/libDaisy//src/per/adc.h ****     \param mux_2 Third mux pin
  57:../DaisyExamples/libDaisy//src/per/adc.h ****     \param adc_pin &
  58:../DaisyExamples/libDaisy//src/per/adc.h ****     */
  59:../DaisyExamples/libDaisy//src/per/adc.h ****     void InitMux(dsy_gpio_pin adc_pin,
  60:../DaisyExamples/libDaisy//src/per/adc.h ****                  size_t       mux_channels,
  61:../DaisyExamples/libDaisy//src/per/adc.h ****                  dsy_gpio_pin mux_0,
  62:../DaisyExamples/libDaisy//src/per/adc.h ****                  dsy_gpio_pin mux_1 = {DSY_GPIOX, 0},
  63:../DaisyExamples/libDaisy//src/per/adc.h ****                  dsy_gpio_pin mux_2 = {DSY_GPIOX, 0});
  64:../DaisyExamples/libDaisy//src/per/adc.h **** 
  65:../DaisyExamples/libDaisy//src/per/adc.h ****     dsy_gpio pin_;                   /**< & */
  66:../DaisyExamples/libDaisy//src/per/adc.h ****     dsy_gpio mux_pin_[MUX_SEL_LAST]; /**< & */
  67:../DaisyExamples/libDaisy//src/per/adc.h ****     uint8_t  mux_channels_;          /**< & */
  68:../DaisyExamples/libDaisy//src/per/adc.h **** };
  69:../DaisyExamples/libDaisy//src/per/adc.h **** 
  70:../DaisyExamples/libDaisy//src/per/adc.h **** /**
  71:../DaisyExamples/libDaisy//src/per/adc.h ****    @brief Handler for analog to digital conversion
  72:../DaisyExamples/libDaisy//src/per/adc.h **** */
  73:../DaisyExamples/libDaisy//src/per/adc.h **** class AdcHandle
  74:../DaisyExamples/libDaisy//src/per/adc.h **** {
  75:../DaisyExamples/libDaisy//src/per/adc.h ****   public:
  76:../DaisyExamples/libDaisy//src/per/adc.h ****     /** Supported oversampling amounts */
  77:../DaisyExamples/libDaisy//src/per/adc.h ****     enum OverSampling
  78:../DaisyExamples/libDaisy//src/per/adc.h ****     {
  79:../DaisyExamples/libDaisy//src/per/adc.h ****         OVS_NONE, /**< & */
  80:../DaisyExamples/libDaisy//src/per/adc.h ****         OVS_4,    /**< & */
  81:../DaisyExamples/libDaisy//src/per/adc.h ****         OVS_8,    /**< & */
  82:../DaisyExamples/libDaisy//src/per/adc.h ****         OVS_16,   /**< & */
  83:../DaisyExamples/libDaisy//src/per/adc.h ****         OVS_32,   /**< & */
  84:../DaisyExamples/libDaisy//src/per/adc.h ****         OVS_64,   /**< & */
  85:../DaisyExamples/libDaisy//src/per/adc.h ****         OVS_128,  /**< & */
  86:../DaisyExamples/libDaisy//src/per/adc.h ****         OVS_256,  /**< & */
  87:../DaisyExamples/libDaisy//src/per/adc.h ****         OVS_512,  /**< & */
  88:../DaisyExamples/libDaisy//src/per/adc.h ****         OVS_1024, /**< & */
  89:../DaisyExamples/libDaisy//src/per/adc.h ****         OVS_LAST, /**< & */
  90:../DaisyExamples/libDaisy//src/per/adc.h ****     };
  91:../DaisyExamples/libDaisy//src/per/adc.h **** 
  92:../DaisyExamples/libDaisy//src/per/adc.h ****     AdcHandle() {}
  93:../DaisyExamples/libDaisy//src/per/adc.h ****     ~AdcHandle() {}
  50              		.loc 4 93 5 is_stmt 1 view .LVU5
  51              		.loc 4 93 5 is_stmt 0 view .LVU6
ARM GAS  C:\Users\matth\AppData\Local\Temp\ccy9EQ3E.s 			page 6


  52              	.LBE192:
  53              	.LBB193:
  54              	.LBI193:
  55              		.file 5 "../DaisyExamples/libDaisy//src/hid/audio.h"
   1:../DaisyExamples/libDaisy//src/hid/audio.h **** #ifndef DSY_AUDIO_H
   2:../DaisyExamples/libDaisy//src/hid/audio.h **** #define DSY_AUDIO_H /**< & */
   3:../DaisyExamples/libDaisy//src/hid/audio.h **** 
   4:../DaisyExamples/libDaisy//src/hid/audio.h **** #include "per/sai.h"
   5:../DaisyExamples/libDaisy//src/hid/audio.h **** 
   6:../DaisyExamples/libDaisy//src/hid/audio.h **** namespace daisy
   7:../DaisyExamples/libDaisy//src/hid/audio.h **** {
   8:../DaisyExamples/libDaisy//src/hid/audio.h **** /** @brief Audio Engine Handle
   9:../DaisyExamples/libDaisy//src/hid/audio.h ****  *  @ingroup audio 
  10:../DaisyExamples/libDaisy//src/hid/audio.h ****  *  @details This class allows for higher level access to an audio engine.
  11:../DaisyExamples/libDaisy//src/hid/audio.h ****  *           If you're using a SOM like the DaisySeed or DaisyPatchSM (or any 
  12:../DaisyExamples/libDaisy//src/hid/audio.h ****  *            board that includes one of those objects) then the intialization
  13:../DaisyExamples/libDaisy//src/hid/audio.h ****  *            is already taken  care of.
  14:../DaisyExamples/libDaisy//src/hid/audio.h ****  *           If you're setting up your own custom hardware, or need to make changes
  15:../DaisyExamples/libDaisy//src/hid/audio.h ****  *           you will have to take the following steps:
  16:../DaisyExamples/libDaisy//src/hid/audio.h ****  *             1. Create and Initialize an SaiHandle or two depending on your requirements
  17:../DaisyExamples/libDaisy//src/hid/audio.h ****  *             2. Initialize the Audio Handle with the desired settings and the Initialized SaiHand
  18:../DaisyExamples/libDaisy//src/hid/audio.h ****  *             3. If the connected codec requires special configuration or initialization, do so
  19:../DaisyExamples/libDaisy//src/hid/audio.h ****  *             4. Write a callback method using either the AudioCallback or the InterleavingAudioCa
  20:../DaisyExamples/libDaisy//src/hid/audio.h ****  *             5. Start the Audio using one of the StartAudio function
  21:../DaisyExamples/libDaisy//src/hid/audio.h ****  */
  22:../DaisyExamples/libDaisy//src/hid/audio.h **** class AudioHandle
  23:../DaisyExamples/libDaisy//src/hid/audio.h **** {
  24:../DaisyExamples/libDaisy//src/hid/audio.h ****   public:
  25:../DaisyExamples/libDaisy//src/hid/audio.h ****     /** Manually configurable details about the Audio Engine */
  26:../DaisyExamples/libDaisy//src/hid/audio.h ****     /** TODO: Figure out how to get samplerate in here. */
  27:../DaisyExamples/libDaisy//src/hid/audio.h ****     struct Config
  28:../DaisyExamples/libDaisy//src/hid/audio.h ****     {
  29:../DaisyExamples/libDaisy//src/hid/audio.h ****         /** number of samples to process per callback */
  30:../DaisyExamples/libDaisy//src/hid/audio.h ****         size_t blocksize;
  31:../DaisyExamples/libDaisy//src/hid/audio.h **** 
  32:../DaisyExamples/libDaisy//src/hid/audio.h ****         /**< Sample rate of audio */
  33:../DaisyExamples/libDaisy//src/hid/audio.h ****         SaiHandle::Config::SampleRate samplerate;
  34:../DaisyExamples/libDaisy//src/hid/audio.h **** 
  35:../DaisyExamples/libDaisy//src/hid/audio.h ****         /** factor for adjustment before and after callback for hardware that may have extra headro
  36:../DaisyExamples/libDaisy//src/hid/audio.h ****         float postgain;
  37:../DaisyExamples/libDaisy//src/hid/audio.h **** 
  38:../DaisyExamples/libDaisy//src/hid/audio.h ****         /** factor for additional one-sided compensation to audio path for hardware that may
  39:../DaisyExamples/libDaisy//src/hid/audio.h ****          *  have unequal input/output ranges
  40:../DaisyExamples/libDaisy//src/hid/audio.h ****          */
  41:../DaisyExamples/libDaisy//src/hid/audio.h ****         float output_compensation;
  42:../DaisyExamples/libDaisy//src/hid/audio.h **** 
  43:../DaisyExamples/libDaisy//src/hid/audio.h ****         /** Sets default values for config struct */
  44:../DaisyExamples/libDaisy//src/hid/audio.h ****         Config()
  45:../DaisyExamples/libDaisy//src/hid/audio.h ****         : blocksize(48),
  46:../DaisyExamples/libDaisy//src/hid/audio.h ****           samplerate(SaiHandle::Config::SampleRate::SAI_48KHZ),
  47:../DaisyExamples/libDaisy//src/hid/audio.h ****           postgain(1.f),
  48:../DaisyExamples/libDaisy//src/hid/audio.h ****           output_compensation(1.f)
  49:../DaisyExamples/libDaisy//src/hid/audio.h ****         {
  50:../DaisyExamples/libDaisy//src/hid/audio.h ****         }
  51:../DaisyExamples/libDaisy//src/hid/audio.h ****     };
  52:../DaisyExamples/libDaisy//src/hid/audio.h **** 
  53:../DaisyExamples/libDaisy//src/hid/audio.h ****     enum class Result
ARM GAS  C:\Users\matth\AppData\Local\Temp\ccy9EQ3E.s 			page 7


  54:../DaisyExamples/libDaisy//src/hid/audio.h ****     {
  55:../DaisyExamples/libDaisy//src/hid/audio.h ****         OK,
  56:../DaisyExamples/libDaisy//src/hid/audio.h ****         ERR,
  57:../DaisyExamples/libDaisy//src/hid/audio.h ****     };
  58:../DaisyExamples/libDaisy//src/hid/audio.h **** 
  59:../DaisyExamples/libDaisy//src/hid/audio.h ****     /** Non-Interleaving input buffer
  60:../DaisyExamples/libDaisy//src/hid/audio.h ****      * Buffer arranged by float[chn][sample] 
  61:../DaisyExamples/libDaisy//src/hid/audio.h ****      * const so that the user can't modify the input
  62:../DaisyExamples/libDaisy//src/hid/audio.h ****      */
  63:../DaisyExamples/libDaisy//src/hid/audio.h ****     typedef const float* const* InputBuffer;
  64:../DaisyExamples/libDaisy//src/hid/audio.h **** 
  65:../DaisyExamples/libDaisy//src/hid/audio.h ****     /** Non-Interleaving output buffer
  66:../DaisyExamples/libDaisy//src/hid/audio.h ****      * Arranged by float[chn][sample] 
  67:../DaisyExamples/libDaisy//src/hid/audio.h ****      */
  68:../DaisyExamples/libDaisy//src/hid/audio.h ****     typedef float** OutputBuffer;
  69:../DaisyExamples/libDaisy//src/hid/audio.h **** 
  70:../DaisyExamples/libDaisy//src/hid/audio.h ****     /** Type for a Non-Interleaving audio callback 
  71:../DaisyExamples/libDaisy//src/hid/audio.h ****      * Non-Interleaving audio callbacks in daisy will be of this type
  72:../DaisyExamples/libDaisy//src/hid/audio.h ****      */
  73:../DaisyExamples/libDaisy//src/hid/audio.h ****     typedef void (*AudioCallback)(InputBuffer  in,
  74:../DaisyExamples/libDaisy//src/hid/audio.h ****                                   OutputBuffer out,
  75:../DaisyExamples/libDaisy//src/hid/audio.h ****                                   size_t       size);
  76:../DaisyExamples/libDaisy//src/hid/audio.h **** 
  77:../DaisyExamples/libDaisy//src/hid/audio.h ****     /** Interleaving Input buffer
  78:../DaisyExamples/libDaisy//src/hid/audio.h ****      ** audio is prepared as { L0, R0, L1, R1, . . . LN, RN }]
  79:../DaisyExamples/libDaisy//src/hid/audio.h ****      ** this is const, as the user shouldn't modify it
  80:../DaisyExamples/libDaisy//src/hid/audio.h ****     */
  81:../DaisyExamples/libDaisy//src/hid/audio.h ****     typedef const float* InterleavingInputBuffer;
  82:../DaisyExamples/libDaisy//src/hid/audio.h **** 
  83:../DaisyExamples/libDaisy//src/hid/audio.h ****     /** Interleaving Output buffer 
  84:../DaisyExamples/libDaisy//src/hid/audio.h ****      ** audio is prepared as { L0, R0, L1, R1, . . . LN, RN }
  85:../DaisyExamples/libDaisy//src/hid/audio.h ****     */
  86:../DaisyExamples/libDaisy//src/hid/audio.h ****     typedef float* InterleavingOutputBuffer;
  87:../DaisyExamples/libDaisy//src/hid/audio.h **** 
  88:../DaisyExamples/libDaisy//src/hid/audio.h ****     /** Interleaving Audio Callback 
  89:../DaisyExamples/libDaisy//src/hid/audio.h ****      * Interleaving audio callbacks in daisy must be of this type
  90:../DaisyExamples/libDaisy//src/hid/audio.h ****      */
  91:../DaisyExamples/libDaisy//src/hid/audio.h ****     typedef void (*InterleavingAudioCallback)(InterleavingInputBuffer  in,
  92:../DaisyExamples/libDaisy//src/hid/audio.h ****                                               InterleavingOutputBuffer out,
  93:../DaisyExamples/libDaisy//src/hid/audio.h ****                                               size_t                   size);
  94:../DaisyExamples/libDaisy//src/hid/audio.h **** 
  95:../DaisyExamples/libDaisy//src/hid/audio.h ****     AudioHandle() : pimpl_(nullptr) {}
  96:../DaisyExamples/libDaisy//src/hid/audio.h ****     ~AudioHandle() {}
  56              		.loc 5 96 5 is_stmt 1 view .LVU7
  57              		.loc 5 96 5 is_stmt 0 view .LVU8
  58              	.LBE193:
  59              		.loc 1 22 19 view .LVU9
  60 0000 7047     		bx	lr
  61              		.cfi_endproc
  62              	.LFE2528:
  64              		.weak	_ZN5daisy9DaisySeedD1Ev
  65              		.thumb_set _ZN5daisy9DaisySeedD1Ev,_ZN5daisy9DaisySeedD2Ev
  66 0002 00BF     		.section	.text._Z13AudioCallbackPKPKfPPfj,"ax",%progbits
  67              		.align	1
  68              		.p2align 2,,3
  69              		.global	_Z13AudioCallbackPKPKfPPfj
  70              		.syntax unified
ARM GAS  C:\Users\matth\AppData\Local\Temp\ccy9EQ3E.s 			page 8


  71              		.thumb
  72              		.thumb_func
  73              		.fpu fpv5-d16
  75              	_Z13AudioCallbackPKPKfPPfj:
  76              	.LVL1:
  77              	.LFB4785:
  78              		.file 6 "test1.cpp"
   1:test1.cpp     **** // took these from Arduino source code, need to check this works okay!
   2:test1.cpp     **** #define bitRead(value, bit) (((value) >> (bit)) & 0x01)
   3:test1.cpp     **** #define bitSet(value, bit) ((value) |= (1UL << (bit)))
   4:test1.cpp     **** #define bitClear(value, bit) ((value) &= ~(1UL << (bit)))
   5:test1.cpp     **** #define bitWrite(value, bit, bitvalue) (bitvalue ? bitSet(value, bit) : bitClear(value, bit))
   6:test1.cpp     **** 
   7:test1.cpp     **** #include "daisy_seed.h"
   8:test1.cpp     **** #include "daisysp.h"
   9:test1.cpp     **** #include "sr_165.h"
  10:test1.cpp     **** 
  11:test1.cpp     **** using namespace daisy;
  12:test1.cpp     **** using namespace daisy::seed;
  13:test1.cpp     **** 
  14:test1.cpp     **** using My165Chain = ShiftRegister165<5>;
  15:test1.cpp     **** 
  16:test1.cpp     **** DaisySeed hw;
  17:test1.cpp     **** 
  18:test1.cpp     **** void AudioCallback(AudioHandle::InputBuffer in, AudioHandle::OutputBuffer out, size_t size)
  19:test1.cpp     **** {
  79              		.loc 6 19 1 is_stmt 1 view -0
  80              		.cfi_startproc
  81              		@ args = 0, pretend = 0, frame = 0
  82              		@ frame_needed = 0, uses_anonymous_args = 0
  83              		@ link register save eliminated.
  20:test1.cpp     **** 	for (size_t i = 0; i < size; i++)
  84              		.loc 6 20 2 view .LVU11
  85              	.LBB194:
  86              		.loc 6 20 23 view .LVU12
  87 0000 9AB1     		cbz	r2, .L11
  88 0002 0368     		ldr	r3, [r0]
  89 0004 4068     		ldr	r0, [r0, #4]
  90              	.LVL2:
  91              		.loc 6 20 23 is_stmt 0 view .LVU13
  92 0006 03EB820C 		add	ip, r3, r2, lsl #2
  93              	.LBE194:
  19:test1.cpp     **** 	for (size_t i = 0; i < size; i++)
  94              		.loc 6 19 1 view .LVU14
  95 000a 10B4     		push	{r4}
  96              		.cfi_def_cfa_offset 4
  97              		.cfi_offset 4, -4
  98 000c 0C68     		ldr	r4, [r1]
  99 000e 4968     		ldr	r1, [r1, #4]
 100              	.LVL3:
 101              	.L5:
 102              	.LBB195:
  21:test1.cpp     **** 	{
  22:test1.cpp     **** 		out[0][i] = in[0][i];
 103              		.loc 6 22 3 is_stmt 1 discriminator 2 view .LVU15
 104              		.loc 6 22 22 is_stmt 0 discriminator 2 view .LVU16
 105 0010 53F8042B 		ldr	r2, [r3], #4	@ float
ARM GAS  C:\Users\matth\AppData\Local\Temp\ccy9EQ3E.s 			page 9


 106              		.loc 6 22 13 discriminator 2 view .LVU17
 107 0014 44F8042B 		str	r2, [r4], #4	@ float
  23:test1.cpp     **** 		out[1][i] = in[1][i];
 108              		.loc 6 23 3 is_stmt 1 discriminator 2 view .LVU18
  20:test1.cpp     **** 	{
 109              		.loc 6 20 23 is_stmt 0 discriminator 2 view .LVU19
 110 0018 6345     		cmp	r3, ip
 111              		.loc 6 23 22 discriminator 2 view .LVU20
 112 001a 50F8042B 		ldr	r2, [r0], #4	@ float
 113              		.loc 6 23 13 discriminator 2 view .LVU21
 114 001e 41F8042B 		str	r2, [r1], #4	@ float
  20:test1.cpp     **** 	{
 115              		.loc 6 20 2 is_stmt 1 discriminator 2 view .LVU22
  20:test1.cpp     **** 	{
 116              		.loc 6 20 23 discriminator 2 view .LVU23
 117 0022 F5D1     		bne	.L5
 118              	.LBE195:
  24:test1.cpp     **** 	}
  25:test1.cpp     **** }
 119              		.loc 6 25 1 is_stmt 0 view .LVU24
 120 0024 5DF8044B 		ldr	r4, [sp], #4
 121              		.cfi_restore 4
 122              		.cfi_def_cfa_offset 0
 123 0028 7047     		bx	lr
 124              	.LVL4:
 125              	.L11:
 126              		.loc 6 25 1 view .LVU25
 127 002a 7047     		bx	lr
 128              		.cfi_endproc
 129              	.LFE4785:
 131              		.section	.rodata.main.str1.4,"aMS",%progbits,1
 132              		.align	2
 133              	.LC1:
 134 0000 3100     		.ascii	"1\000"
 135 0002 0000     		.align	2
 136              	.LC2:
 137 0004 3000     		.ascii	"0\000"
 138 0006 0000     		.align	2
 139              	.LC3:
 140 0008 53544152 		.ascii	"STARTED\000"
 140      54454400 
 141              		.align	2
 142              	.LC4:
 143 0010 496E7075 		.ascii	"Input readings:\000"
 143      74207265 
 143      6164696E 
 143      67733A00 
 144              		.align	2
 145              	.LC5:
 146 0020 0A00     		.ascii	"\012\000"
 147 0022 0000     		.align	2
 148              	.LC6:
 149 0024 25642000 		.ascii	"%d \000"
 150              		.align	2
 151              	.LC7:
 152 0028 2000     		.ascii	" \000"
 153              		.section	.text.startup.main,"ax",%progbits
ARM GAS  C:\Users\matth\AppData\Local\Temp\ccy9EQ3E.s 			page 10


 154              		.align	1
 155              		.p2align 2,,3
 156              		.global	main
 157              		.syntax unified
 158              		.thumb
 159              		.thumb_func
 160              		.fpu fpv5-d16
 162              	main:
 163              	.LFB4786:
  26:test1.cpp     **** 
  27:test1.cpp     **** int main(void)
  28:test1.cpp     **** {
 164              		.loc 6 28 1 is_stmt 1 view -0
 165              		.cfi_startproc
 166              		@ args = 0, pretend = 0, frame = 232
 167              		@ frame_needed = 0, uses_anonymous_args = 0
  29:test1.cpp     **** 	hw.Configure();
 168              		.loc 6 29 2 view .LVU27
  28:test1.cpp     **** 	hw.Configure();
 169              		.loc 6 28 1 is_stmt 0 view .LVU28
 170 0000 2DE9F04F 		push	{r4, r5, r6, r7, r8, r9, r10, fp, lr}
 171              		.cfi_def_cfa_offset 36
 172              		.cfi_offset 4, -36
 173              		.cfi_offset 5, -32
 174              		.cfi_offset 6, -28
 175              		.cfi_offset 7, -24
 176              		.cfi_offset 8, -20
 177              		.cfi_offset 9, -16
 178              		.cfi_offset 10, -12
 179              		.cfi_offset 11, -8
 180              		.cfi_offset 14, -4
 181              		.loc 6 29 14 view .LVU29
 182 0004 BC48     		ldr	r0, .L103
 183              	.LBB402:
 184              	.LBB403:
 185              		.file 7 "sr_165.h"
   1:sr_165.h      **** #pragma once
   2:sr_165.h      **** #ifndef DEV_SR_165_H
   3:sr_165.h      **** #define DEV_SR_165_H
   4:sr_165.h      **** #include "per/gpio.h"
   5:sr_165.h      **** #include "sys/system.h"
   6:sr_165.h      **** 
   7:sr_165.h      **** namespace daisy
   8:sr_165.h      **** {
   9:sr_165.h      **** /** @brief Device Driver for 165 shift register
  10:sr_165.h      ****  ** @author shensley (modified by matt bradshaw)
  11:sr_165.h      ****  ** @addtogroup shiftregister
  12:sr_165.h      ****  **
  13:sr_165.h      ****  ** 165
  14:sr_165.h      ****  **
  15:sr_165.h      ****  ** Driver has support for daisy chaining and running up to 2 same-sized 
  16:sr_165.h      ****  ** chains in parallel from a single set of clk/latch pins to reduce 
  17:sr_165.h      ****  ** pin/code overhead when using multiple devices.
  18:sr_165.h      ****  **
  19:sr_165.h      ****  ** When dealing with multiple parallel/daisy-chained devices the 
  20:sr_165.h      ****  ** states of all inputs will be filled in the following order (example uses two chained and two pa
  21:sr_165.h      ****  ** data[chain0,parallel0], data[chain1,parallel0], data[chain0,parallel1], data[chain1,parallel1];
ARM GAS  C:\Users\matth\AppData\Local\Temp\ccy9EQ3E.s 			page 11


  22:sr_165.h      ****  ** 
  23:sr_165.h      ****  ** When combining multiple daisy chained and parallel devices the number of devices chained should
  24:sr_165.h      ****  ** for each parallel device chain.
  25:sr_165.h      ****  **
  26:sr_165.h      ****  ***/
  27:sr_165.h      **** template <size_t num_daisychained = 1, size_t num_parallel = 1>
  28:sr_165.h      **** class ShiftRegister165
  29:sr_165.h      **** {
  30:sr_165.h      ****   public:
  31:sr_165.h      ****     /** Configuration Structure for handling the pin setting of the device */
  32:sr_165.h      ****     struct Config
  33:sr_165.h      ****     {
  34:sr_165.h      ****         dsy_gpio_pin clk;   /**< Clock pin to attach to pin 10 of device(s) */
  35:sr_165.h      ****         dsy_gpio_pin latch; /**< Latch pin to attach to pin 9 of device(s) */
  36:sr_165.h      ****         dsy_gpio_pin data[num_parallel]; /**< Data Pin(s) */
  37:sr_165.h      ****     };
  38:sr_165.h      **** 
  39:sr_165.h      ****     ShiftRegister165() {}
  40:sr_165.h      ****     ~ShiftRegister165() {}
  41:sr_165.h      **** 
  42:sr_165.h      ****     /** Initializes the Device(s) */
  43:sr_165.h      ****     void Init(const Config& cfg)
  44:sr_165.h      ****     {
  45:sr_165.h      ****         config_ = cfg;
 186              		.loc 7 45 9 view .LVU30
 187 0006 4FF00308 		mov	r8, #3
  46:sr_165.h      ****         // Init GPIO
  47:sr_165.h      ****         clk_.mode = DSY_GPIO_MODE_OUTPUT_PP;
  48:sr_165.h      ****         clk_.pull = DSY_GPIO_NOPULL;
 188              		.loc 7 48 19 view .LVU31
 189 000a 0024     		movs	r4, #0
  45:sr_165.h      ****         // Init GPIO
 190              		.loc 7 45 9 view .LVU32
 191 000c 0225     		movs	r5, #2
  47:sr_165.h      ****         clk_.pull = DSY_GPIO_NOPULL;
 192              		.loc 7 47 19 view .LVU33
 193 000e 0127     		movs	r7, #1
  45:sr_165.h      ****         // Init GPIO
 194              		.loc 7 45 9 view .LVU34
 195 0010 0926     		movs	r6, #9
 196 0012 4FF00C09 		mov	r9, #12
 197              	.LBE403:
 198              	.LBE402:
  28:test1.cpp     **** 	hw.Configure();
 199              		.loc 6 28 1 view .LVU35
 200 0016 2DED028B 		vpush.64	{d8}
 201              		.cfi_def_cfa_offset 44
 202              		.cfi_offset 80, -44
 203              		.cfi_offset 81, -40
 204 001a BDB0     		sub	sp, sp, #244
 205              		.cfi_def_cfa_offset 288
 206              		.loc 6 29 14 view .LVU36
 207 001c FFF7FEFF 		bl	_ZN5daisy9DaisySeed9ConfigureEv
 208              	.LVL5:
  30:test1.cpp     **** 	hw.Init();
 209              		.loc 6 30 2 is_stmt 1 view .LVU37
 210              		.loc 6 30 9 is_stmt 0 view .LVU38
ARM GAS  C:\Users\matth\AppData\Local\Temp\ccy9EQ3E.s 			page 12


 211 0020 0021     		movs	r1, #0
 212 0022 B548     		ldr	r0, .L103
 213 0024 FFF7FEFF 		bl	_ZN5daisy9DaisySeed4InitEb
 214              	.LVL6:
  31:test1.cpp     **** 	hw.SetAudioBlockSize(4); // number of samples handled per callback
 215              		.loc 6 31 2 is_stmt 1 view .LVU39
 216              		.loc 6 31 22 is_stmt 0 view .LVU40
 217 0028 0421     		movs	r1, #4
 218 002a B348     		ldr	r0, .L103
 219 002c FFF7FEFF 		bl	_ZN5daisy9DaisySeed17SetAudioBlockSizeEj
 220              	.LVL7:
  32:test1.cpp     **** 	hw.SetAudioSampleRate(SaiHandle::Config::SampleRate::SAI_48KHZ);
 221              		.loc 6 32 2 is_stmt 1 view .LVU41
 222              		.loc 6 32 23 is_stmt 0 view .LVU42
 223 0030 4146     		mov	r1, r8
 224 0032 B148     		ldr	r0, .L103
 225 0034 FFF7FEFF 		bl	_ZN5daisy9DaisySeed18SetAudioSampleRateENS_9SaiHandle6Config10SampleRateE
 226              	.LVL8:
  33:test1.cpp     **** 	hw.StartAudio(AudioCallback);
 227              		.loc 6 33 2 is_stmt 1 view .LVU43
 228              		.loc 6 33 15 is_stmt 0 view .LVU44
 229 0038 B049     		ldr	r1, .L103+4
 230 003a AF48     		ldr	r0, .L103
 231 003c FFF7FEFF 		bl	_ZN5daisy9DaisySeed10StartAudioEPFvPKPKfPPfjE
 232              	.LVL9:
  34:test1.cpp     **** 
  35:test1.cpp     **** 	ShiftRegister595 outputChain;
 233              		.loc 6 35 2 is_stmt 1 view .LVU45
 234              	.LBB409:
 235              	.LBI409:
 236              		.file 8 "../DaisyExamples/libDaisy//src/dev/sr_595.h"
   1:../DaisyExamples/libDaisy//src/dev/sr_595.h **** #pragma once
   2:../DaisyExamples/libDaisy//src/dev/sr_595.h **** #ifndef DSY_DEV_SR_595_H
   3:../DaisyExamples/libDaisy//src/dev/sr_595.h **** #define DSY_DEV_SR_595_H
   4:../DaisyExamples/libDaisy//src/dev/sr_595.h **** 
   5:../DaisyExamples/libDaisy//src/dev/sr_595.h **** #include "daisy_core.h"
   6:../DaisyExamples/libDaisy//src/dev/sr_595.h **** #include "per/gpio.h"
   7:../DaisyExamples/libDaisy//src/dev/sr_595.h **** 
   8:../DaisyExamples/libDaisy//src/dev/sr_595.h **** const size_t kMaxSr595DaisyChain
   9:../DaisyExamples/libDaisy//src/dev/sr_595.h ****     = 16; /**< Maximum Number of chained devices Connect device's QH' pin to the next chips serial 
  10:../DaisyExamples/libDaisy//src/dev/sr_595.h **** 
  11:../DaisyExamples/libDaisy//src/dev/sr_595.h **** /** @addtogroup shiftregister
  12:../DaisyExamples/libDaisy//src/dev/sr_595.h ****     @{
  13:../DaisyExamples/libDaisy//src/dev/sr_595.h ****     */
  14:../DaisyExamples/libDaisy//src/dev/sr_595.h **** 
  15:../DaisyExamples/libDaisy//src/dev/sr_595.h **** /**
  16:../DaisyExamples/libDaisy//src/dev/sr_595.h ****    @brief Device Driver for 8-bit shift register. \n 
  17:../DaisyExamples/libDaisy//src/dev/sr_595.h ****    CD74HC595 - 8-bit serial to parallel output shift
  18:../DaisyExamples/libDaisy//src/dev/sr_595.h ****    @author shensley
  19:../DaisyExamples/libDaisy//src/dev/sr_595.h ****    @date May 2020
  20:../DaisyExamples/libDaisy//src/dev/sr_595.h **** */
  21:../DaisyExamples/libDaisy//src/dev/sr_595.h **** class ShiftRegister595
  22:../DaisyExamples/libDaisy//src/dev/sr_595.h **** {
  23:../DaisyExamples/libDaisy//src/dev/sr_595.h ****   public:
  24:../DaisyExamples/libDaisy//src/dev/sr_595.h ****     /** The following pins correspond to the hardware connections
  25:../DaisyExamples/libDaisy//src/dev/sr_595.h ****     to the 595. 
  26:../DaisyExamples/libDaisy//src/dev/sr_595.h ****   */
ARM GAS  C:\Users\matth\AppData\Local\Temp\ccy9EQ3E.s 			page 13


  27:../DaisyExamples/libDaisy//src/dev/sr_595.h ****     enum Pins
  28:../DaisyExamples/libDaisy//src/dev/sr_595.h ****     {
  29:../DaisyExamples/libDaisy//src/dev/sr_595.h ****         PIN_LATCH, /** LATCH corresonds to Pin 12 "RCLK" */
  30:../DaisyExamples/libDaisy//src/dev/sr_595.h ****         PIN_CLK,   /** CLK corresponds to Pin 11 "SRCLK" */
  31:../DaisyExamples/libDaisy//src/dev/sr_595.h ****         PIN_DATA,  /** DATA corresponds to Pin 14 "SER" */
  32:../DaisyExamples/libDaisy//src/dev/sr_595.h ****         NUM_PINS, /** _SRCLR_ is not added here, but is tied to 3v3 on test hardware. */
  33:../DaisyExamples/libDaisy//src/dev/sr_595.h ****     };
  34:../DaisyExamples/libDaisy//src/dev/sr_595.h ****     ShiftRegister595() {}
 237              		.loc 8 34 5 view .LVU46
 238              		.loc 8 34 5 is_stmt 0 view .LVU47
 239              	.LBE409:
  36:test1.cpp     **** 	My165Chain inputChain;
 240              		.loc 6 36 2 is_stmt 1 view .LVU48
 241              	.LBB410:
 242              	.LBI410:
  39:sr_165.h      ****     ~ShiftRegister165() {}
 243              		.loc 7 39 5 view .LVU49
  39:sr_165.h      ****     ~ShiftRegister165() {}
 244              		.loc 7 39 5 is_stmt 0 view .LVU50
 245              	.LBE410:
  37:test1.cpp     **** 	My165Chain::Config inputChainConfig;
 246              		.loc 6 37 2 is_stmt 1 view .LVU51
  38:test1.cpp     **** 	inputChainConfig.clk = D5;
 247              		.loc 6 38 2 view .LVU52
 248              		.file 9 "../DaisyExamples/libDaisy//src/daisy_core.h"
   1:../DaisyExamples/libDaisy//src/daisy_core.h **** #pragma once
   2:../DaisyExamples/libDaisy//src/daisy_core.h **** #ifndef DSY_CORE_HW_H
   3:../DaisyExamples/libDaisy//src/daisy_core.h **** #define DSY_CORE_HW_H /**< & */
   4:../DaisyExamples/libDaisy//src/daisy_core.h **** #include <stdint.h>
   5:../DaisyExamples/libDaisy//src/daisy_core.h **** #include <stdlib.h>
   6:../DaisyExamples/libDaisy//src/daisy_core.h **** 
   7:../DaisyExamples/libDaisy//src/daisy_core.h **** #if defined(_MSC_VER)
   8:../DaisyExamples/libDaisy//src/daisy_core.h **** #define FORCE_INLINE __forceinline /**< & */
   9:../DaisyExamples/libDaisy//src/daisy_core.h **** #elif defined(__clang__)
  10:../DaisyExamples/libDaisy//src/daisy_core.h **** #define FORCE_INLINE inline __attribute__((always_inline)) /**< & */
  11:../DaisyExamples/libDaisy//src/daisy_core.h **** #pragma clang diagnostic ignored "-Wduplicate-decl-specifier"
  12:../DaisyExamples/libDaisy//src/daisy_core.h **** #elif defined(__GNUC__)
  13:../DaisyExamples/libDaisy//src/daisy_core.h **** #define FORCE_INLINE inline __attribute__((always_inline)) /**< & */
  14:../DaisyExamples/libDaisy//src/daisy_core.h **** #else
  15:../DaisyExamples/libDaisy//src/daisy_core.h **** #error unknown compiler
  16:../DaisyExamples/libDaisy//src/daisy_core.h **** #endif
  17:../DaisyExamples/libDaisy//src/daisy_core.h **** 
  18:../DaisyExamples/libDaisy//src/daisy_core.h **** /** @addtogroup utility
  19:../DaisyExamples/libDaisy//src/daisy_core.h ****     @{
  20:../DaisyExamples/libDaisy//src/daisy_core.h **** */
  21:../DaisyExamples/libDaisy//src/daisy_core.h **** 
  22:../DaisyExamples/libDaisy//src/daisy_core.h **** /** Macro for area of memory that is configured as cacheless
  23:../DaisyExamples/libDaisy//src/daisy_core.h **** This should be used primarily for DMA buffers, and the like.
  24:../DaisyExamples/libDaisy//src/daisy_core.h **** */
  25:../DaisyExamples/libDaisy//src/daisy_core.h **** #define DMA_BUFFER_MEM_SECTION __attribute__((section(".sram1_bss")))
  26:../DaisyExamples/libDaisy//src/daisy_core.h **** /** 
  27:../DaisyExamples/libDaisy//src/daisy_core.h **** THE DTCM RAM section is also non-cached. However, is not suitable 
  28:../DaisyExamples/libDaisy//src/daisy_core.h **** for DMA transfers. Performance is on par with internal SRAM w/ 
  29:../DaisyExamples/libDaisy//src/daisy_core.h **** cache enabled.
  30:../DaisyExamples/libDaisy//src/daisy_core.h **** */
  31:../DaisyExamples/libDaisy//src/daisy_core.h **** #define DTCM_MEM_SECTION __attribute__((section(".dtcmram_bss")))
  32:../DaisyExamples/libDaisy//src/daisy_core.h **** 
ARM GAS  C:\Users\matth\AppData\Local\Temp\ccy9EQ3E.s 			page 14


  33:../DaisyExamples/libDaisy//src/daisy_core.h **** #define FBIPMAX 0.999985f             /**< close to 1.0f-LSB at 16 bit */
  34:../DaisyExamples/libDaisy//src/daisy_core.h **** #define FBIPMIN (-FBIPMAX)            /**< - (1 - LSB) */
  35:../DaisyExamples/libDaisy//src/daisy_core.h **** #define U82F_SCALE 0.0078740f         /**< 1 / 127 */
  36:../DaisyExamples/libDaisy//src/daisy_core.h **** #define F2U8_SCALE 127.0f             /**< 128 - 1 */
  37:../DaisyExamples/libDaisy//src/daisy_core.h **** #define S82F_SCALE 0.0078125f         /**< 1 / (2**7) */
  38:../DaisyExamples/libDaisy//src/daisy_core.h **** #define F2S8_SCALE 127.0f             /**< (2 ** 7) - 1 */
  39:../DaisyExamples/libDaisy//src/daisy_core.h **** #define S162F_SCALE 3.0517578125e-05f /**< 1 / (2** 15) */
  40:../DaisyExamples/libDaisy//src/daisy_core.h **** #define F2S16_SCALE 32767.0f          /**< (2 ** 15) - 1 */
  41:../DaisyExamples/libDaisy//src/daisy_core.h **** #define F2S24_SCALE 8388608.0f        /**< 2 ** 23 */
  42:../DaisyExamples/libDaisy//src/daisy_core.h **** #define S242F_SCALE 1.192092896e-07f  /**< 1 / (2 ** 23) */
  43:../DaisyExamples/libDaisy//src/daisy_core.h **** #define S24SIGN 0x800000              /**< 2 ** 23 */
  44:../DaisyExamples/libDaisy//src/daisy_core.h **** #define S322F_SCALE 4.6566129e-10f    /**< 1 / (2** 31) */
  45:../DaisyExamples/libDaisy//src/daisy_core.h **** #define F2S32_SCALE 2147483647.f      /**< (2 ** 31) - 1 */
  46:../DaisyExamples/libDaisy//src/daisy_core.h **** 
  47:../DaisyExamples/libDaisy//src/daisy_core.h **** 
  48:../DaisyExamples/libDaisy//src/daisy_core.h **** /** shorthand macro for simplifying the reading of the left 
  49:../DaisyExamples/libDaisy//src/daisy_core.h ****  *  channel of a non-interleaved output buffer named out */
  50:../DaisyExamples/libDaisy//src/daisy_core.h **** #define OUT_L out[0]
  51:../DaisyExamples/libDaisy//src/daisy_core.h **** 
  52:../DaisyExamples/libDaisy//src/daisy_core.h **** /** shorthand macro for simplifying the reading of the right 
  53:../DaisyExamples/libDaisy//src/daisy_core.h ****  *  channel of a non-interleaved output buffer named out */
  54:../DaisyExamples/libDaisy//src/daisy_core.h **** #define OUT_R out[1]
  55:../DaisyExamples/libDaisy//src/daisy_core.h **** 
  56:../DaisyExamples/libDaisy//src/daisy_core.h **** /** shorthand macro for simplifying the reading of the left 
  57:../DaisyExamples/libDaisy//src/daisy_core.h ****  *  channel of a non-interleaved input buffer named in */
  58:../DaisyExamples/libDaisy//src/daisy_core.h **** #define IN_L in[0]
  59:../DaisyExamples/libDaisy//src/daisy_core.h **** 
  60:../DaisyExamples/libDaisy//src/daisy_core.h **** /** shorthand macro for simplifying the reading of the right 
  61:../DaisyExamples/libDaisy//src/daisy_core.h ****  *  channel of a non-interleaved input buffer named in */
  62:../DaisyExamples/libDaisy//src/daisy_core.h **** #define IN_R in[1]
  63:../DaisyExamples/libDaisy//src/daisy_core.h **** 
  64:../DaisyExamples/libDaisy//src/daisy_core.h **** /** 
  65:../DaisyExamples/libDaisy//src/daisy_core.h ****     Computes cube.
  66:../DaisyExamples/libDaisy//src/daisy_core.h ****     \param x Number to be cubed
  67:../DaisyExamples/libDaisy//src/daisy_core.h ****     \return x ^ 3
  68:../DaisyExamples/libDaisy//src/daisy_core.h **** */
  69:../DaisyExamples/libDaisy//src/daisy_core.h **** FORCE_INLINE float cube(float x)
  70:../DaisyExamples/libDaisy//src/daisy_core.h **** {
  71:../DaisyExamples/libDaisy//src/daisy_core.h ****     return (x * x) * x;
  72:../DaisyExamples/libDaisy//src/daisy_core.h **** }
  73:../DaisyExamples/libDaisy//src/daisy_core.h **** 
  74:../DaisyExamples/libDaisy//src/daisy_core.h **** /** 
  75:../DaisyExamples/libDaisy//src/daisy_core.h ****     Converts unsigned 8-bit to float
  76:../DaisyExamples/libDaisy//src/daisy_core.h ****     \param x Number to be scaled.
  77:../DaisyExamples/libDaisy//src/daisy_core.h ****     \return Scaled number.
  78:../DaisyExamples/libDaisy//src/daisy_core.h **** */
  79:../DaisyExamples/libDaisy//src/daisy_core.h **** FORCE_INLINE float u82f(uint8_t x)
  80:../DaisyExamples/libDaisy//src/daisy_core.h **** {
  81:../DaisyExamples/libDaisy//src/daisy_core.h ****     return ((float)x - 127.f) * U82F_SCALE;
  82:../DaisyExamples/libDaisy//src/daisy_core.h **** }
  83:../DaisyExamples/libDaisy//src/daisy_core.h **** 
  84:../DaisyExamples/libDaisy//src/daisy_core.h **** /**
  85:../DaisyExamples/libDaisy//src/daisy_core.h ****     Converts float to unsigned 8-bit
  86:../DaisyExamples/libDaisy//src/daisy_core.h **** */
  87:../DaisyExamples/libDaisy//src/daisy_core.h **** FORCE_INLINE uint8_t f2u8(float x)
  88:../DaisyExamples/libDaisy//src/daisy_core.h **** {
  89:../DaisyExamples/libDaisy//src/daisy_core.h ****     x = x <= FBIPMIN ? FBIPMIN : x;
ARM GAS  C:\Users\matth\AppData\Local\Temp\ccy9EQ3E.s 			page 15


  90:../DaisyExamples/libDaisy//src/daisy_core.h ****     x = x >= FBIPMAX ? FBIPMAX : x;
  91:../DaisyExamples/libDaisy//src/daisy_core.h ****     return (uint8_t)((x * F2U8_SCALE) + F2U8_SCALE);
  92:../DaisyExamples/libDaisy//src/daisy_core.h **** }
  93:../DaisyExamples/libDaisy//src/daisy_core.h **** 
  94:../DaisyExamples/libDaisy//src/daisy_core.h **** 
  95:../DaisyExamples/libDaisy//src/daisy_core.h **** /** 
  96:../DaisyExamples/libDaisy//src/daisy_core.h ****     Converts Signed 8-bit to float
  97:../DaisyExamples/libDaisy//src/daisy_core.h ****     \param x Number to be scaled.
  98:../DaisyExamples/libDaisy//src/daisy_core.h ****     \return Scaled number.
  99:../DaisyExamples/libDaisy//src/daisy_core.h **** */
 100:../DaisyExamples/libDaisy//src/daisy_core.h **** FORCE_INLINE float s82f(int8_t x)
 101:../DaisyExamples/libDaisy//src/daisy_core.h **** {
 102:../DaisyExamples/libDaisy//src/daisy_core.h ****     return (float)x * S82F_SCALE;
 103:../DaisyExamples/libDaisy//src/daisy_core.h **** }
 104:../DaisyExamples/libDaisy//src/daisy_core.h **** 
 105:../DaisyExamples/libDaisy//src/daisy_core.h **** /**
 106:../DaisyExamples/libDaisy//src/daisy_core.h ****     Converts float to Signed 8-bit
 107:../DaisyExamples/libDaisy//src/daisy_core.h **** */
 108:../DaisyExamples/libDaisy//src/daisy_core.h **** FORCE_INLINE int8_t f2s8(float x)
 109:../DaisyExamples/libDaisy//src/daisy_core.h **** {
 110:../DaisyExamples/libDaisy//src/daisy_core.h ****     x = x <= FBIPMIN ? FBIPMIN : x;
 111:../DaisyExamples/libDaisy//src/daisy_core.h ****     x = x >= FBIPMAX ? FBIPMAX : x;
 112:../DaisyExamples/libDaisy//src/daisy_core.h ****     return (int32_t)(x * F2S8_SCALE);
 113:../DaisyExamples/libDaisy//src/daisy_core.h **** }
 114:../DaisyExamples/libDaisy//src/daisy_core.h **** 
 115:../DaisyExamples/libDaisy//src/daisy_core.h **** /** 
 116:../DaisyExamples/libDaisy//src/daisy_core.h ****     Converts Signed 16-bit to float
 117:../DaisyExamples/libDaisy//src/daisy_core.h ****     \param x Number to be scaled.
 118:../DaisyExamples/libDaisy//src/daisy_core.h ****     \return Scaled number.
 119:../DaisyExamples/libDaisy//src/daisy_core.h **** */
 120:../DaisyExamples/libDaisy//src/daisy_core.h **** FORCE_INLINE float s162f(int16_t x)
 121:../DaisyExamples/libDaisy//src/daisy_core.h **** {
 122:../DaisyExamples/libDaisy//src/daisy_core.h ****     return (float)x * S162F_SCALE;
 123:../DaisyExamples/libDaisy//src/daisy_core.h **** }
 124:../DaisyExamples/libDaisy//src/daisy_core.h **** 
 125:../DaisyExamples/libDaisy//src/daisy_core.h **** /**
 126:../DaisyExamples/libDaisy//src/daisy_core.h ****     Converts float to Signed 16-bit
 127:../DaisyExamples/libDaisy//src/daisy_core.h **** */
 128:../DaisyExamples/libDaisy//src/daisy_core.h **** FORCE_INLINE int16_t f2s16(float x)
 129:../DaisyExamples/libDaisy//src/daisy_core.h **** {
 130:../DaisyExamples/libDaisy//src/daisy_core.h ****     x = x <= FBIPMIN ? FBIPMIN : x;
 131:../DaisyExamples/libDaisy//src/daisy_core.h ****     x = x >= FBIPMAX ? FBIPMAX : x;
 132:../DaisyExamples/libDaisy//src/daisy_core.h ****     return (int32_t)(x * F2S16_SCALE);
 133:../DaisyExamples/libDaisy//src/daisy_core.h **** }
 134:../DaisyExamples/libDaisy//src/daisy_core.h **** 
 135:../DaisyExamples/libDaisy//src/daisy_core.h **** /**
 136:../DaisyExamples/libDaisy//src/daisy_core.h ****     Converts Signed 24-bit to float
 137:../DaisyExamples/libDaisy//src/daisy_core.h ****  */
 138:../DaisyExamples/libDaisy//src/daisy_core.h **** FORCE_INLINE float s242f(int32_t x)
 139:../DaisyExamples/libDaisy//src/daisy_core.h **** {
 140:../DaisyExamples/libDaisy//src/daisy_core.h ****     x = (x ^ S24SIGN) - S24SIGN; //sign extend aka ((x<<8)>>8)
 141:../DaisyExamples/libDaisy//src/daisy_core.h ****     return (float)x * S242F_SCALE;
 142:../DaisyExamples/libDaisy//src/daisy_core.h **** }
 143:../DaisyExamples/libDaisy//src/daisy_core.h **** /**
 144:../DaisyExamples/libDaisy//src/daisy_core.h ****     Converts float to Signed 24-bit
 145:../DaisyExamples/libDaisy//src/daisy_core.h ****  */
 146:../DaisyExamples/libDaisy//src/daisy_core.h **** FORCE_INLINE int32_t f2s24(float x)
ARM GAS  C:\Users\matth\AppData\Local\Temp\ccy9EQ3E.s 			page 16


 147:../DaisyExamples/libDaisy//src/daisy_core.h **** {
 148:../DaisyExamples/libDaisy//src/daisy_core.h ****     x = x <= FBIPMIN ? FBIPMIN : x;
 149:../DaisyExamples/libDaisy//src/daisy_core.h ****     x = x >= FBIPMAX ? FBIPMAX : x;
 150:../DaisyExamples/libDaisy//src/daisy_core.h ****     return (int32_t)(x * F2S24_SCALE);
 151:../DaisyExamples/libDaisy//src/daisy_core.h **** }
 152:../DaisyExamples/libDaisy//src/daisy_core.h **** 
 153:../DaisyExamples/libDaisy//src/daisy_core.h **** /**
 154:../DaisyExamples/libDaisy//src/daisy_core.h ****     Converts Signed 32-bit to float
 155:../DaisyExamples/libDaisy//src/daisy_core.h ****  */
 156:../DaisyExamples/libDaisy//src/daisy_core.h **** FORCE_INLINE float s322f(int32_t x)
 157:../DaisyExamples/libDaisy//src/daisy_core.h **** {
 158:../DaisyExamples/libDaisy//src/daisy_core.h ****     return (float)x * S322F_SCALE;
 159:../DaisyExamples/libDaisy//src/daisy_core.h **** }
 160:../DaisyExamples/libDaisy//src/daisy_core.h **** /**
 161:../DaisyExamples/libDaisy//src/daisy_core.h ****     Converts float to Signed 24-bit
 162:../DaisyExamples/libDaisy//src/daisy_core.h ****  */
 163:../DaisyExamples/libDaisy//src/daisy_core.h **** FORCE_INLINE int32_t f2s32(float x)
 164:../DaisyExamples/libDaisy//src/daisy_core.h **** {
 165:../DaisyExamples/libDaisy//src/daisy_core.h ****     x = x <= FBIPMIN ? FBIPMIN : x;
 166:../DaisyExamples/libDaisy//src/daisy_core.h ****     x = x >= FBIPMAX ? FBIPMAX : x;
 167:../DaisyExamples/libDaisy//src/daisy_core.h ****     return (int32_t)(x * F2S32_SCALE);
 168:../DaisyExamples/libDaisy//src/daisy_core.h **** }
 169:../DaisyExamples/libDaisy//src/daisy_core.h **** 
 170:../DaisyExamples/libDaisy//src/daisy_core.h **** 
 171:../DaisyExamples/libDaisy//src/daisy_core.h **** /** Enums and a simple struct for defining a hardware pin on the MCU
 172:../DaisyExamples/libDaisy//src/daisy_core.h ****  *  These correlate with the stm32 datasheet, and are used to configure
 173:../DaisyExamples/libDaisy//src/daisy_core.h ****  *  the hardware.
 174:../DaisyExamples/libDaisy//src/daisy_core.h ****  * 
 175:../DaisyExamples/libDaisy//src/daisy_core.h ****  *  This along with the dsy_gpio_pin class should no longer be used.
 176:../DaisyExamples/libDaisy//src/daisy_core.h ****  *  They are available for backwards compatability. 
 177:../DaisyExamples/libDaisy//src/daisy_core.h ****  * 
 178:../DaisyExamples/libDaisy//src/daisy_core.h ****  *  Please use GPIOPort enum and the Pin struct instead.
 179:../DaisyExamples/libDaisy//src/daisy_core.h ****  */
 180:../DaisyExamples/libDaisy//src/daisy_core.h **** typedef enum
 181:../DaisyExamples/libDaisy//src/daisy_core.h **** {
 182:../DaisyExamples/libDaisy//src/daisy_core.h ****     DSY_GPIOA, /**< & */
 183:../DaisyExamples/libDaisy//src/daisy_core.h ****     DSY_GPIOB, /**< & */
 184:../DaisyExamples/libDaisy//src/daisy_core.h ****     DSY_GPIOC, /**< & */
 185:../DaisyExamples/libDaisy//src/daisy_core.h ****     DSY_GPIOD, /**< & */
 186:../DaisyExamples/libDaisy//src/daisy_core.h ****     DSY_GPIOE, /**< & */
 187:../DaisyExamples/libDaisy//src/daisy_core.h ****     DSY_GPIOF, /**< & */
 188:../DaisyExamples/libDaisy//src/daisy_core.h ****     DSY_GPIOG, /**< & */
 189:../DaisyExamples/libDaisy//src/daisy_core.h ****     DSY_GPIOH, /**< & */
 190:../DaisyExamples/libDaisy//src/daisy_core.h ****     DSY_GPIOI, /**< & */
 191:../DaisyExamples/libDaisy//src/daisy_core.h ****     DSY_GPIOJ, /**< & */
 192:../DaisyExamples/libDaisy//src/daisy_core.h ****     DSY_GPIOK, /**< & */
 193:../DaisyExamples/libDaisy//src/daisy_core.h ****     DSY_GPIOX, /** This is a non-existant port for unsupported bits of hardware. */
 194:../DaisyExamples/libDaisy//src/daisy_core.h ****     DSY_GPIO_LAST, /** Final enum member */
 195:../DaisyExamples/libDaisy//src/daisy_core.h **** } dsy_gpio_port;
 196:../DaisyExamples/libDaisy//src/daisy_core.h **** 
 197:../DaisyExamples/libDaisy//src/daisy_core.h **** /** Hardware define pins 
 198:../DaisyExamples/libDaisy//src/daisy_core.h ****  *  
 199:../DaisyExamples/libDaisy//src/daisy_core.h ****  *  The dsy_gpio_pin struct should no longer be used, and is only available for
 200:../DaisyExamples/libDaisy//src/daisy_core.h ****  *  backwards compatability.
 201:../DaisyExamples/libDaisy//src/daisy_core.h ****  * 
 202:../DaisyExamples/libDaisy//src/daisy_core.h ****  *  Please use Pin struct instead.
 203:../DaisyExamples/libDaisy//src/daisy_core.h ****  */
ARM GAS  C:\Users\matth\AppData\Local\Temp\ccy9EQ3E.s 			page 17


 204:../DaisyExamples/libDaisy//src/daisy_core.h **** typedef struct
 205:../DaisyExamples/libDaisy//src/daisy_core.h **** {
 206:../DaisyExamples/libDaisy//src/daisy_core.h ****     dsy_gpio_port port; /**< & */
 207:../DaisyExamples/libDaisy//src/daisy_core.h ****     uint8_t       pin;  /**< number 0-15 */
 208:../DaisyExamples/libDaisy//src/daisy_core.h **** } dsy_gpio_pin;
 209:../DaisyExamples/libDaisy//src/daisy_core.h **** 
 210:../DaisyExamples/libDaisy//src/daisy_core.h **** /** Helper for creating pins from port/pin combos easily
 211:../DaisyExamples/libDaisy//src/daisy_core.h ****  * 
 212:../DaisyExamples/libDaisy//src/daisy_core.h ****  *  The dsy_gpio_pin struct should no longer be used, and is only available for
 213:../DaisyExamples/libDaisy//src/daisy_core.h ****  *  backwards compatability.
 214:../DaisyExamples/libDaisy//src/daisy_core.h ****  * 
 215:../DaisyExamples/libDaisy//src/daisy_core.h ****  *  Please use Pin struct instead.
 216:../DaisyExamples/libDaisy//src/daisy_core.h **** */
 217:../DaisyExamples/libDaisy//src/daisy_core.h **** FORCE_INLINE dsy_gpio_pin dsy_pin(dsy_gpio_port port, uint8_t pin)
 218:../DaisyExamples/libDaisy//src/daisy_core.h **** {
 219:../DaisyExamples/libDaisy//src/daisy_core.h ****     dsy_gpio_pin p;
 220:../DaisyExamples/libDaisy//src/daisy_core.h ****     p.port = port;
 221:../DaisyExamples/libDaisy//src/daisy_core.h ****     p.pin  = pin;
 222:../DaisyExamples/libDaisy//src/daisy_core.h ****     return p;
 223:../DaisyExamples/libDaisy//src/daisy_core.h **** }
 224:../DaisyExamples/libDaisy//src/daisy_core.h **** 
 225:../DaisyExamples/libDaisy//src/daisy_core.h **** /** Helper for testing sameness of two dsy_gpio_pins
 226:../DaisyExamples/libDaisy//src/daisy_core.h ****  *  \return    1 if same, 0 if different
 227:../DaisyExamples/libDaisy//src/daisy_core.h ****  * 
 228:../DaisyExamples/libDaisy//src/daisy_core.h ****  *  The dsy_gpio_pin struct should no longer be used, and is only available for
 229:../DaisyExamples/libDaisy//src/daisy_core.h ****  *  backwards compatability.
 230:../DaisyExamples/libDaisy//src/daisy_core.h ****  * 
 231:../DaisyExamples/libDaisy//src/daisy_core.h ****  *  Please use Pin struct instead.
 232:../DaisyExamples/libDaisy//src/daisy_core.h ****  */
 233:../DaisyExamples/libDaisy//src/daisy_core.h **** FORCE_INLINE uint8_t dsy_pin_cmp(dsy_gpio_pin *a, dsy_gpio_pin *b)
 234:../DaisyExamples/libDaisy//src/daisy_core.h **** {
 235:../DaisyExamples/libDaisy//src/daisy_core.h ****     return ((a->port == b->port) && (a->pin == b->pin));
 236:../DaisyExamples/libDaisy//src/daisy_core.h **** }
 237:../DaisyExamples/libDaisy//src/daisy_core.h **** 
 238:../DaisyExamples/libDaisy//src/daisy_core.h **** #ifdef __cplusplus
 239:../DaisyExamples/libDaisy//src/daisy_core.h **** 
 240:../DaisyExamples/libDaisy//src/daisy_core.h **** namespace daisy
 241:../DaisyExamples/libDaisy//src/daisy_core.h **** {
 242:../DaisyExamples/libDaisy//src/daisy_core.h **** /** @brief GPIO Port names */
 243:../DaisyExamples/libDaisy//src/daisy_core.h **** enum GPIOPort
 244:../DaisyExamples/libDaisy//src/daisy_core.h **** {
 245:../DaisyExamples/libDaisy//src/daisy_core.h ****     PORTA, /**< Port A */
 246:../DaisyExamples/libDaisy//src/daisy_core.h ****     PORTB, /**< Port B */
 247:../DaisyExamples/libDaisy//src/daisy_core.h ****     PORTC, /**< Port C */
 248:../DaisyExamples/libDaisy//src/daisy_core.h ****     PORTD, /**< Port D */
 249:../DaisyExamples/libDaisy//src/daisy_core.h ****     PORTE, /**< Port E */
 250:../DaisyExamples/libDaisy//src/daisy_core.h ****     PORTF, /**< Port F */
 251:../DaisyExamples/libDaisy//src/daisy_core.h ****     PORTG, /**< Port G */
 252:../DaisyExamples/libDaisy//src/daisy_core.h ****     PORTH, /**< Port H */
 253:../DaisyExamples/libDaisy//src/daisy_core.h ****     PORTI, /**< Port I */
 254:../DaisyExamples/libDaisy//src/daisy_core.h ****     PORTJ, /**< Port J */
 255:../DaisyExamples/libDaisy//src/daisy_core.h ****     PORTK, /**< Port K */
 256:../DaisyExamples/libDaisy//src/daisy_core.h ****     PORTX, /**< Used as a dummy port to signal an invalid pin. */
 257:../DaisyExamples/libDaisy//src/daisy_core.h **** };
 258:../DaisyExamples/libDaisy//src/daisy_core.h **** 
 259:../DaisyExamples/libDaisy//src/daisy_core.h **** /** @brief representation of hardware port/pin combination */
 260:../DaisyExamples/libDaisy//src/daisy_core.h **** struct Pin
ARM GAS  C:\Users\matth\AppData\Local\Temp\ccy9EQ3E.s 			page 18


 261:../DaisyExamples/libDaisy//src/daisy_core.h **** {
 262:../DaisyExamples/libDaisy//src/daisy_core.h ****     GPIOPort port;
 263:../DaisyExamples/libDaisy//src/daisy_core.h ****     uint8_t  pin;
 264:../DaisyExamples/libDaisy//src/daisy_core.h **** 
 265:../DaisyExamples/libDaisy//src/daisy_core.h ****     /** @brief Constructor creates a valid pin. 
 266:../DaisyExamples/libDaisy//src/daisy_core.h ****      *  @param pt GPIOPort between PA, and PK corresponding to STM32 Port.
 267:../DaisyExamples/libDaisy//src/daisy_core.h ****      *  @param pn pin number in range of 0-15
 268:../DaisyExamples/libDaisy//src/daisy_core.h ****     */
 269:../DaisyExamples/libDaisy//src/daisy_core.h ****     constexpr Pin(const GPIOPort pt, const uint8_t pn) : port(pt), pin(pn) {}
 270:../DaisyExamples/libDaisy//src/daisy_core.h **** 
 271:../DaisyExamples/libDaisy//src/daisy_core.h ****     /** @brief Basic Constructor creates an invalid Pin object */
 272:../DaisyExamples/libDaisy//src/daisy_core.h ****     constexpr Pin() : port(PORTX), pin(255) {}
 273:../DaisyExamples/libDaisy//src/daisy_core.h **** 
 274:../DaisyExamples/libDaisy//src/daisy_core.h ****     /** @brief checks validity of a Pin 
 275:../DaisyExamples/libDaisy//src/daisy_core.h ****      *  @retval returns true if the port is a valid hardware pin, otherwise false.
 276:../DaisyExamples/libDaisy//src/daisy_core.h ****     */
 277:../DaisyExamples/libDaisy//src/daisy_core.h ****     constexpr bool IsValid() const { return port != PORTX && pin < 16; }
 278:../DaisyExamples/libDaisy//src/daisy_core.h **** 
 279:../DaisyExamples/libDaisy//src/daisy_core.h ****     /** @brief comparison operator for checking equality between Pin objects */
 280:../DaisyExamples/libDaisy//src/daisy_core.h ****     constexpr bool operator==(const Pin &rhs) const
 281:../DaisyExamples/libDaisy//src/daisy_core.h ****     {
 282:../DaisyExamples/libDaisy//src/daisy_core.h ****         return (rhs.port == port) && (rhs.pin == pin);
 283:../DaisyExamples/libDaisy//src/daisy_core.h ****     }
 284:../DaisyExamples/libDaisy//src/daisy_core.h **** 
 285:../DaisyExamples/libDaisy//src/daisy_core.h ****     /** @brief comparison operator for checking inequality between Pin objects */
 286:../DaisyExamples/libDaisy//src/daisy_core.h ****     constexpr bool operator!=(const Pin &rhs) const { return !operator==(rhs); }
 287:../DaisyExamples/libDaisy//src/daisy_core.h **** 
 288:../DaisyExamples/libDaisy//src/daisy_core.h ****     /** @brief conversion operation for converting to the old-style representation
 289:../DaisyExamples/libDaisy//src/daisy_core.h ****      *         of a pin.
 290:../DaisyExamples/libDaisy//src/daisy_core.h ****      * 
 291:../DaisyExamples/libDaisy//src/daisy_core.h ****      *  This allows the new Pin type to be used in place of the older, dsy_gpio_pin
 292:../DaisyExamples/libDaisy//src/daisy_core.h ****      *  type.
 293:../DaisyExamples/libDaisy//src/daisy_core.h ****      */
 294:../DaisyExamples/libDaisy//src/daisy_core.h ****     operator dsy_gpio_pin() const
 295:../DaisyExamples/libDaisy//src/daisy_core.h ****     {
 296:../DaisyExamples/libDaisy//src/daisy_core.h ****         return dsy_pin(static_cast<dsy_gpio_port>(port), pin);
 249              		.loc 9 296 9 view .LVU53
 219:../DaisyExamples/libDaisy//src/daisy_core.h ****     p.port = port;
 250              		.loc 9 219 5 view .LVU54
 220:../DaisyExamples/libDaisy//src/daisy_core.h ****     p.pin  = pin;
 251              		.loc 9 220 5 view .LVU55
 221:../DaisyExamples/libDaisy//src/daisy_core.h ****     return p;
 252              		.loc 9 221 5 view .LVU56
 222:../DaisyExamples/libDaisy//src/daisy_core.h **** }
 253              		.loc 9 222 5 view .LVU57
  39:test1.cpp     **** 	inputChainConfig.latch = D6;
 254              		.loc 6 39 2 view .LVU58
 255              		.loc 9 296 9 view .LVU59
 219:../DaisyExamples/libDaisy//src/daisy_core.h ****     p.port = port;
 256              		.loc 9 219 5 view .LVU60
 220:../DaisyExamples/libDaisy//src/daisy_core.h ****     p.pin  = pin;
 257              		.loc 9 220 5 view .LVU61
 221:../DaisyExamples/libDaisy//src/daisy_core.h ****     return p;
 258              		.loc 9 221 5 view .LVU62
 222:../DaisyExamples/libDaisy//src/daisy_core.h **** }
 259              		.loc 9 222 5 view .LVU63
  40:test1.cpp     **** 	inputChainConfig.data[0] = D3;
ARM GAS  C:\Users\matth\AppData\Local\Temp\ccy9EQ3E.s 			page 19


 260              		.loc 6 40 2 view .LVU64
 261              		.loc 9 296 9 view .LVU65
 219:../DaisyExamples/libDaisy//src/daisy_core.h ****     p.port = port;
 262              		.loc 9 219 5 view .LVU66
 220:../DaisyExamples/libDaisy//src/daisy_core.h ****     p.pin  = pin;
 263              		.loc 9 220 5 view .LVU67
 221:../DaisyExamples/libDaisy//src/daisy_core.h ****     return p;
 264              		.loc 9 221 5 view .LVU68
 222:../DaisyExamples/libDaisy//src/daisy_core.h **** }
 265              		.loc 9 222 5 view .LVU69
  41:test1.cpp     **** 	inputChain.Init(inputChainConfig);
 266              		.loc 6 41 2 view .LVU70
 267              	.LBB411:
 268              	.LBI402:
  43:sr_165.h      ****     {
 269              		.loc 7 43 10 view .LVU71
 270              	.LBB407:
  49:sr_165.h      ****         clk_.pin  = cfg.clk;
  50:sr_165.h      ****         dsy_gpio_init(&clk_);
 271              		.loc 7 50 22 is_stmt 0 view .LVU72
 272 0040 0DF1E200 		add	r0, sp, #226
  45:sr_165.h      ****         // Init GPIO
 273              		.loc 7 45 9 view .LVU73
 274 0044 8DF8B550 		strb	r5, [sp, #181]
 275 0048 8DF8B650 		strb	r5, [sp, #182]
 276 004c 8DF8B850 		strb	r5, [sp, #184]
 277 0050 8DF8B960 		strb	r6, [sp, #185]
  49:sr_165.h      ****         clk_.pin  = cfg.clk;
 278              		.loc 7 49 9 view .LVU74
 279 0054 8DF8E350 		strb	r5, [sp, #227]
  48:sr_165.h      ****         clk_.pin  = cfg.clk;
 280              		.loc 7 48 19 view .LVU75
 281 0058 8DF8E540 		strb	r4, [sp, #229]
  45:sr_165.h      ****         // Init GPIO
 282              		.loc 7 45 9 view .LVU76
 283 005c 8DF8B480 		strb	r8, [sp, #180]
 284 0060 8DF8B790 		strb	r9, [sp, #183]
  47:sr_165.h      ****         clk_.pull = DSY_GPIO_NOPULL;
 285              		.loc 7 47 19 view .LVU77
 286 0064 8DF8E470 		strb	r7, [sp, #228]
  49:sr_165.h      ****         dsy_gpio_init(&clk_);
 287              		.loc 7 49 9 view .LVU78
 288 0068 8DF8E280 		strb	r8, [sp, #226]
 289              		.loc 7 50 22 view .LVU79
 290 006c FFF7FEFF 		bl	dsy_gpio_init
 291              	.LVL10:
  51:sr_165.h      ****         latch_.mode = DSY_GPIO_MODE_OUTPUT_PP;
  52:sr_165.h      ****         latch_.pull = DSY_GPIO_NOPULL;
  53:sr_165.h      ****         latch_.pin  = cfg.latch;
  54:sr_165.h      ****         dsy_gpio_init(&latch_);
 292              		.loc 7 54 22 view .LVU80
 293 0070 0DF1E600 		add	r0, sp, #230
  52:sr_165.h      ****         latch_.pin  = cfg.latch;
 294              		.loc 7 52 21 view .LVU81
 295 0074 8DF8E940 		strb	r4, [sp, #233]
  53:sr_165.h      ****         dsy_gpio_init(&latch_);
 296              		.loc 7 53 9 view .LVU82
ARM GAS  C:\Users\matth\AppData\Local\Temp\ccy9EQ3E.s 			page 20


 297 0078 8DF8E650 		strb	r5, [sp, #230]
 298 007c 8DF8E790 		strb	r9, [sp, #231]
  51:sr_165.h      ****         latch_.mode = DSY_GPIO_MODE_OUTPUT_PP;
 299              		.loc 7 51 21 view .LVU83
 300 0080 8DF8E870 		strb	r7, [sp, #232]
 301              		.loc 7 54 22 view .LVU84
 302 0084 FFF7FEFF 		bl	dsy_gpio_init
 303              	.LVL11:
 304              	.LBB404:
  55:sr_165.h      ****         for(size_t i = 0; i < num_parallel; i++)
 305              		.loc 7 55 29 is_stmt 1 view .LVU85
  56:sr_165.h      ****         {
  57:sr_165.h      ****             data_[i].mode = DSY_GPIO_MODE_INPUT;
  58:sr_165.h      ****             data_[i].pull = DSY_GPIO_NOPULL;
  59:sr_165.h      ****             data_[i].pin  = cfg.data[i];
  60:sr_165.h      ****             dsy_gpio_init(&data_[i]);
 306              		.loc 7 60 26 is_stmt 0 view .LVU86
 307 0088 0DF1EA00 		add	r0, sp, #234
  59:sr_165.h      ****             dsy_gpio_init(&data_[i]);
 308              		.loc 7 59 13 view .LVU87
 309 008c 8DF8EB60 		strb	r6, [sp, #235]
  57:sr_165.h      ****             data_[i].pull = DSY_GPIO_NOPULL;
 310              		.loc 7 57 27 view .LVU88
 311 0090 8DF8EC40 		strb	r4, [sp, #236]
 312              	.LBE404:
 313              	.LBE407:
 314              	.LBE411:
  42:test1.cpp     **** 	dsy_gpio_pin outputChainPins[3] = {D1,D2,D7};
  43:test1.cpp     **** 	outputChain.Init(outputChainPins, 5);
  44:test1.cpp     **** 	GPIO inputChainClockEnable;
  45:test1.cpp     **** 	inputChainClockEnable.Init(D4, GPIO::Mode::OUTPUT);
  46:test1.cpp     **** 	inputChainClockEnable.Write(false);
  47:test1.cpp     **** 	AdcChannelConfig analogInputs[2];
  48:test1.cpp     **** 	analogInputs[0].InitSingle(A0);
  49:test1.cpp     **** 	analogInputs[1].InitSingle(A1);
  50:test1.cpp     **** 	hw.adc.Init(analogInputs, 2);
  51:test1.cpp     **** 	hw.adc.Start();
  52:test1.cpp     **** 
  53:test1.cpp     **** 	bool led_state = false;
  54:test1.cpp     **** 
  55:test1.cpp     **** 	// Start the log, and wait for connection
  56:test1.cpp     ****     hw.StartLog(true);
  57:test1.cpp     **** 	hw.PrintLine("STARTED");
  58:test1.cpp     ****     // Print "Hello World" to the Serial Monitor
  59:test1.cpp     **** 	int analogChannel = 0;
 315              		.loc 6 59 6 view .LVU89
 316 0094 2646     		mov	r6, r4
 317              	.LBB412:
 318              	.LBB408:
 319              	.LBB405:
  58:sr_165.h      ****             data_[i].pin  = cfg.data[i];
 320              		.loc 7 58 27 view .LVU90
 321 0096 8DF8ED40 		strb	r4, [sp, #237]
  59:sr_165.h      ****             dsy_gpio_init(&data_[i]);
 322              		.loc 7 59 13 view .LVU91
 323 009a 8DF8EA50 		strb	r5, [sp, #234]
 324              		.loc 7 60 26 view .LVU92
ARM GAS  C:\Users\matth\AppData\Local\Temp\ccy9EQ3E.s 			page 21


 325 009e FFF7FEFF 		bl	dsy_gpio_init
 326              	.LVL12:
  55:sr_165.h      ****         {
 327              		.loc 7 55 9 is_stmt 1 view .LVU93
  55:sr_165.h      ****         {
 328              		.loc 7 55 29 view .LVU94
  55:sr_165.h      ****         {
 329              		.loc 7 55 29 is_stmt 0 view .LVU95
 330              	.LBE405:
 331              	.LBB406:
  61:sr_165.h      ****         }
  62:sr_165.h      ****         // Init States
  63:sr_165.h      ****         for(size_t i = 0; i < kTotalStates; i++)
 332              		.loc 7 63 29 is_stmt 1 view .LVU96
  64:sr_165.h      ****         {
  65:sr_165.h      ****             states_[i] = false;
 333              		.loc 7 65 24 is_stmt 0 view .LVU97
 334 00a2 2146     		mov	r1, r4
 335 00a4 2822     		movs	r2, #40
 336 00a6 0DF1BA00 		add	r0, sp, #186
 337 00aa FFF7FEFF 		bl	memset
 338              	.LVL13:
 339              		.loc 7 65 24 view .LVU98
 340              	.LBE406:
 341              	.LBE408:
 342              	.LBE412:
  42:test1.cpp     **** 	outputChain.Init(outputChainPins, 5);
 343              		.loc 6 42 2 is_stmt 1 view .LVU99
 344              		.loc 9 296 9 view .LVU100
 219:../DaisyExamples/libDaisy//src/daisy_core.h ****     p.port = port;
 345              		.loc 9 219 5 view .LVU101
 220:../DaisyExamples/libDaisy//src/daisy_core.h ****     p.pin  = pin;
 346              		.loc 9 220 5 view .LVU102
 221:../DaisyExamples/libDaisy//src/daisy_core.h ****     return p;
 347              		.loc 9 221 5 view .LVU103
 222:../DaisyExamples/libDaisy//src/daisy_core.h **** }
 348              		.loc 9 222 5 view .LVU104
  42:test1.cpp     **** 	outputChain.Init(outputChainPins, 5);
 349              		.loc 6 42 45 is_stmt 0 view .LVU105
 350 00ae 0A23     		movs	r3, #10
  43:test1.cpp     **** 	GPIO inputChainClockEnable;
 351              		.loc 6 43 18 view .LVU106
 352 00b0 0522     		movs	r2, #5
 353 00b2 05A9     		add	r1, sp, #20
  42:test1.cpp     **** 	outputChain.Init(outputChainPins, 5);
 354              		.loc 6 42 45 view .LVU107
 355 00b4 8DF81730 		strb	r3, [sp, #23]
  43:test1.cpp     **** 	GPIO inputChainClockEnable;
 356              		.loc 6 43 18 view .LVU108
 357 00b8 0CA8     		add	r0, sp, #48
  42:test1.cpp     **** 	outputChain.Init(outputChainPins, 5);
 358              		.loc 6 42 45 view .LVU109
 359 00ba 8DF81930 		strb	r3, [sp, #25]
 360 00be 0B23     		movs	r3, #11
 361 00c0 8DF81450 		strb	r5, [sp, #20]
 362 00c4 8DF81530 		strb	r3, [sp, #21]
 363              	.LVL14:
ARM GAS  C:\Users\matth\AppData\Local\Temp\ccy9EQ3E.s 			page 22


 364              		.loc 9 296 9 is_stmt 1 view .LVU110
 219:../DaisyExamples/libDaisy//src/daisy_core.h ****     p.port = port;
 365              		.loc 9 219 5 view .LVU111
 220:../DaisyExamples/libDaisy//src/daisy_core.h ****     p.pin  = pin;
 366              		.loc 9 220 5 view .LVU112
 221:../DaisyExamples/libDaisy//src/daisy_core.h ****     return p;
 367              		.loc 9 221 5 view .LVU113
 222:../DaisyExamples/libDaisy//src/daisy_core.h **** }
 368              		.loc 9 222 5 view .LVU114
 369              		.loc 9 296 9 view .LVU115
 219:../DaisyExamples/libDaisy//src/daisy_core.h ****     p.port = port;
 370              		.loc 9 219 5 view .LVU116
 220:../DaisyExamples/libDaisy//src/daisy_core.h ****     p.pin  = pin;
 371              		.loc 9 220 5 view .LVU117
 221:../DaisyExamples/libDaisy//src/daisy_core.h ****     return p;
 372              		.loc 9 221 5 view .LVU118
 222:../DaisyExamples/libDaisy//src/daisy_core.h **** }
 373              		.loc 9 222 5 view .LVU119
  43:test1.cpp     **** 	GPIO inputChainClockEnable;
 374              		.loc 6 43 2 view .LVU120
  42:test1.cpp     **** 	outputChain.Init(outputChainPins, 5);
 375              		.loc 6 42 45 is_stmt 0 view .LVU121
 376 00c8 0623     		movs	r3, #6
 377 00ca 8DF81650 		strb	r5, [sp, #22]
 378 00ce 8DF81830 		strb	r3, [sp, #24]
  43:test1.cpp     **** 	GPIO inputChainClockEnable;
 379              		.loc 6 43 18 view .LVU122
 380 00d2 FFF7FEFF 		bl	_ZN16ShiftRegister5954InitEP12dsy_gpio_pinj
 381              	.LVL15:
  44:test1.cpp     **** 	inputChainClockEnable.Init(D4, GPIO::Mode::OUTPUT);
 382              		.loc 6 44 2 is_stmt 1 view .LVU123
 383              	.LBB413:
 384              	.LBI413:
 385              		.file 10 "../DaisyExamples/libDaisy//src/per/gpio.h"
   1:../DaisyExamples/libDaisy//src/per/gpio.h **** #pragma once
   2:../DaisyExamples/libDaisy//src/per/gpio.h **** #ifndef DSY_GPIO_H
   3:../DaisyExamples/libDaisy//src/per/gpio.h **** #define DSY_GPIO_H
   4:../DaisyExamples/libDaisy//src/per/gpio.h **** #include "daisy_core.h"
   5:../DaisyExamples/libDaisy//src/per/gpio.h **** 
   6:../DaisyExamples/libDaisy//src/per/gpio.h **** #ifdef __cplusplus
   7:../DaisyExamples/libDaisy//src/per/gpio.h **** 
   8:../DaisyExamples/libDaisy//src/per/gpio.h **** namespace daisy
   9:../DaisyExamples/libDaisy//src/per/gpio.h **** {
  10:../DaisyExamples/libDaisy//src/per/gpio.h **** /** @brief General Purpose I/O control 
  11:../DaisyExamples/libDaisy//src/per/gpio.h ****  *  @details peripheral control over a single GPIO
  12:../DaisyExamples/libDaisy//src/per/gpio.h ****  *  @ingroup peripheral
  13:../DaisyExamples/libDaisy//src/per/gpio.h ****  *   
  14:../DaisyExamples/libDaisy//src/per/gpio.h ****  *  Button Input (with internal Pullup resistor)
  15:../DaisyExamples/libDaisy//src/per/gpio.h ****  *  @include GPIO_Input.cpp 
  16:../DaisyExamples/libDaisy//src/per/gpio.h ****  * 
  17:../DaisyExamples/libDaisy//src/per/gpio.h ****  *  Output Example (perfect for blinking an LED)
  18:../DaisyExamples/libDaisy//src/per/gpio.h ****  *  @include GPIO_Output.cpp
  19:../DaisyExamples/libDaisy//src/per/gpio.h ****  * 
  20:../DaisyExamples/libDaisy//src/per/gpio.h **** */
  21:../DaisyExamples/libDaisy//src/per/gpio.h **** class GPIO
  22:../DaisyExamples/libDaisy//src/per/gpio.h **** {
  23:../DaisyExamples/libDaisy//src/per/gpio.h ****   public:
ARM GAS  C:\Users\matth\AppData\Local\Temp\ccy9EQ3E.s 			page 23


  24:../DaisyExamples/libDaisy//src/per/gpio.h ****     /** @brief Mode of operation for the specified GPIO */
  25:../DaisyExamples/libDaisy//src/per/gpio.h ****     enum class Mode
  26:../DaisyExamples/libDaisy//src/per/gpio.h ****     {
  27:../DaisyExamples/libDaisy//src/per/gpio.h ****         INPUT,     /**< Input for reading state of pin */
  28:../DaisyExamples/libDaisy//src/per/gpio.h ****         OUTPUT,    /**< Output w/ push-pull configuration */
  29:../DaisyExamples/libDaisy//src/per/gpio.h ****         OUTPUT_OD, /**< Output w/ open-drain configuration */
  30:../DaisyExamples/libDaisy//src/per/gpio.h ****         ANALOG,    /**< Analog for connection to ADC or DAC peripheral */
  31:../DaisyExamples/libDaisy//src/per/gpio.h ****     };
  32:../DaisyExamples/libDaisy//src/per/gpio.h **** 
  33:../DaisyExamples/libDaisy//src/per/gpio.h ****     /** @brief Configures whether an internal Pull up or Pull down resistor is used. 
  34:../DaisyExamples/libDaisy//src/per/gpio.h ****      *  
  35:../DaisyExamples/libDaisy//src/per/gpio.h ****      * Internal Pull up/down resistors are typically 40k ohms, and will be between
  36:../DaisyExamples/libDaisy//src/per/gpio.h ****      * 30k and 50k
  37:../DaisyExamples/libDaisy//src/per/gpio.h ****      * 
  38:../DaisyExamples/libDaisy//src/per/gpio.h ****      * When the Pin is configured in Analog mode, the pull up/down resistors are
  39:../DaisyExamples/libDaisy//src/per/gpio.h ****      * disabled by hardware. 
  40:../DaisyExamples/libDaisy//src/per/gpio.h ****      */
  41:../DaisyExamples/libDaisy//src/per/gpio.h ****     enum class Pull
  42:../DaisyExamples/libDaisy//src/per/gpio.h ****     {
  43:../DaisyExamples/libDaisy//src/per/gpio.h ****         NOPULL,   /**< No pull up resistor */
  44:../DaisyExamples/libDaisy//src/per/gpio.h ****         PULLUP,   /**< Internal pull up enabled */
  45:../DaisyExamples/libDaisy//src/per/gpio.h ****         PULLDOWN, /**< Internal pull down enabled*/
  46:../DaisyExamples/libDaisy//src/per/gpio.h ****     };
  47:../DaisyExamples/libDaisy//src/per/gpio.h **** 
  48:../DaisyExamples/libDaisy//src/per/gpio.h ****     /** @brief Output speed controls the drive strength, and slew rate of the pin */
  49:../DaisyExamples/libDaisy//src/per/gpio.h ****     enum class Speed
  50:../DaisyExamples/libDaisy//src/per/gpio.h ****     {
  51:../DaisyExamples/libDaisy//src/per/gpio.h ****         LOW,
  52:../DaisyExamples/libDaisy//src/per/gpio.h ****         MEDIUM,
  53:../DaisyExamples/libDaisy//src/per/gpio.h ****         HIGH,
  54:../DaisyExamples/libDaisy//src/per/gpio.h ****         VERY_HIGH,
  55:../DaisyExamples/libDaisy//src/per/gpio.h ****     };
  56:../DaisyExamples/libDaisy//src/per/gpio.h **** 
  57:../DaisyExamples/libDaisy//src/per/gpio.h ****     /** @brief Configuration for a given GPIO */
  58:../DaisyExamples/libDaisy//src/per/gpio.h ****     struct Config
  59:../DaisyExamples/libDaisy//src/per/gpio.h ****     {
  60:../DaisyExamples/libDaisy//src/per/gpio.h ****         Pin   pin;
  61:../DaisyExamples/libDaisy//src/per/gpio.h ****         Mode  mode;
  62:../DaisyExamples/libDaisy//src/per/gpio.h ****         Pull  pull;
  63:../DaisyExamples/libDaisy//src/per/gpio.h ****         Speed speed;
  64:../DaisyExamples/libDaisy//src/per/gpio.h **** 
  65:../DaisyExamples/libDaisy//src/per/gpio.h ****         /** Constructor with no arguments will prepare an invalid GPIO set as
  66:../DaisyExamples/libDaisy//src/per/gpio.h ****          *  an input, with no pullup. 
  67:../DaisyExamples/libDaisy//src/per/gpio.h ****          */
  68:../DaisyExamples/libDaisy//src/per/gpio.h ****         Config()
  69:../DaisyExamples/libDaisy//src/per/gpio.h ****         : pin(), mode(Mode::INPUT), pull(Pull::NOPULL), speed(Speed::LOW)
  70:../DaisyExamples/libDaisy//src/per/gpio.h ****         {
  71:../DaisyExamples/libDaisy//src/per/gpio.h ****         }
  72:../DaisyExamples/libDaisy//src/per/gpio.h ****     };
  73:../DaisyExamples/libDaisy//src/per/gpio.h **** 
  74:../DaisyExamples/libDaisy//src/per/gpio.h ****     GPIO() {}
 386              		.loc 10 74 5 view .LVU124
 387              	.LBB414:
 388              	.LBB415:
 389              	.LBI415:
  68:../DaisyExamples/libDaisy//src/per/gpio.h ****         : pin(), mode(Mode::INPUT), pull(Pull::NOPULL), speed(Speed::LOW)
 390              		.loc 10 68 9 view .LVU125
ARM GAS  C:\Users\matth\AppData\Local\Temp\ccy9EQ3E.s 			page 24


 391              	.LBB416:
 392              	.LBB417:
 393              	.LBB418:
 394              	.LBI418:
 272:../DaisyExamples/libDaisy//src/daisy_core.h **** 
 395              		.loc 9 272 15 view .LVU126
 272:../DaisyExamples/libDaisy//src/daisy_core.h **** 
 396              		.loc 9 272 15 is_stmt 0 view .LVU127
 397              	.LBE418:
 398              	.LBE417:
 399              	.LBE416:
 400              	.LBE415:
 401              	.LBE414:
 402              	.LBE413:
  45:test1.cpp     **** 	inputChainClockEnable.Write(false);
 403              		.loc 6 45 28 view .LVU128
 404 00d6 8A4B     		ldr	r3, .L103+8
 405 00d8 3A46     		mov	r2, r7
 406 00da 07A8     		add	r0, sp, #28
 407              	.LVL16:
  45:test1.cpp     **** 	inputChainClockEnable.Write(false);
 408              		.loc 6 45 28 view .LVU129
 409 00dc 0094     		str	r4, [sp]
 410 00de 1968     		ldr	r1, [r3]
 411              	.LBB428:
 412              	.LBB425:
 413              		.loc 10 74 12 view .LVU130
 414 00e0 4FF60B73 		movw	r3, #65291
 415              	.LBB423:
 416              	.LBB421:
 417              	.LBB419:
  69:../DaisyExamples/libDaisy//src/per/gpio.h ****         {
 418              		.loc 10 69 73 view .LVU131
 419 00e4 0A94     		str	r4, [sp, #40]
 420              	.LVL17:
  69:../DaisyExamples/libDaisy//src/per/gpio.h ****         {
 421              		.loc 10 69 73 view .LVU132
 422              	.LBE419:
 423              	.LBE421:
 424              	.LBE423:
 425              	.LBE425:
 426              	.LBE428:
  45:test1.cpp     **** 	inputChainClockEnable.Write(false);
 427              		.loc 6 45 2 is_stmt 1 view .LVU133
 428              	.LBB429:
 429              	.LBB426:
 430              		.loc 10 74 12 is_stmt 0 view .LVU134
 431 00e6 0793     		str	r3, [sp, #28]
 432              	.LBE426:
 433              	.LBE429:
  45:test1.cpp     **** 	inputChainClockEnable.Write(false);
 434              		.loc 6 45 28 view .LVU135
 435 00e8 2346     		mov	r3, r4
 436              	.LBB430:
 437              	.LBB427:
 438              	.LBB424:
 439              	.LBB422:
ARM GAS  C:\Users\matth\AppData\Local\Temp\ccy9EQ3E.s 			page 25


 440              	.LBB420:
  69:../DaisyExamples/libDaisy//src/per/gpio.h ****         {
 441              		.loc 10 69 73 view .LVU136
 442 00ea CDE90844 		strd	r4, r4, [sp, #32]
 443              	.LBE420:
 444              	.LBE422:
 445              	.LBE424:
 446              	.LBE427:
 447              	.LBE430:
  45:test1.cpp     **** 	inputChainClockEnable.Write(false);
 448              		.loc 6 45 28 view .LVU137
 449 00ee FFF7FEFF 		bl	_ZN5daisy4GPIO4InitENS_3PinENS0_4ModeENS0_4PullENS0_5SpeedE
 450              	.LVL18:
  46:test1.cpp     **** 	AdcChannelConfig analogInputs[2];
 451              		.loc 6 46 2 is_stmt 1 view .LVU138
  46:test1.cpp     **** 	AdcChannelConfig analogInputs[2];
 452              		.loc 6 46 29 is_stmt 0 view .LVU139
 453 00f2 2146     		mov	r1, r4
 454 00f4 07A8     		add	r0, sp, #28
 455 00f6 FFF7FEFF 		bl	_ZN5daisy4GPIO5WriteEb
 456              	.LVL19:
  47:test1.cpp     **** 	analogInputs[0].InitSingle(A0);
 457              		.loc 6 47 2 is_stmt 1 view .LVU140
  48:test1.cpp     **** 	analogInputs[1].InitSingle(A1);
 458              		.loc 6 48 2 view .LVU141
 459              	.LBB431:
 460              	.LBI431:
 294:../DaisyExamples/libDaisy//src/daisy_core.h ****     {
 461              		.loc 9 294 5 view .LVU142
 462              	.LBE431:
 463              		.loc 9 296 9 view .LVU143
 464              	.LBB433:
 465              	.LBB432:
 466              	.LBI432:
 217:../DaisyExamples/libDaisy//src/daisy_core.h **** {
 467              		.loc 9 217 27 view .LVU144
 468              	.LBE432:
 469              	.LBE433:
 219:../DaisyExamples/libDaisy//src/daisy_core.h ****     p.port = port;
 470              		.loc 9 219 5 view .LVU145
 220:../DaisyExamples/libDaisy//src/daisy_core.h ****     p.pin  = pin;
 471              		.loc 9 220 5 view .LVU146
 221:../DaisyExamples/libDaisy//src/daisy_core.h ****     return p;
 472              		.loc 9 221 5 view .LVU147
 222:../DaisyExamples/libDaisy//src/daisy_core.h **** }
 473              		.loc 9 222 5 view .LVU148
 222:../DaisyExamples/libDaisy//src/daisy_core.h **** }
 474              		.loc 9 222 5 is_stmt 0 view .LVU149
 475 00fa 8DF80C50 		strb	r5, [sp, #12]
 476 00fe 8DF80D40 		strb	r4, [sp, #13]
 477              	.LVL20:
  48:test1.cpp     **** 	analogInputs[1].InitSingle(A1);
 478              		.loc 6 48 28 view .LVU150
 479 0102 24A8     		add	r0, sp, #144
 480 0104 0399     		ldr	r1, [sp, #12]
 481 0106 FFF7FEFF 		bl	_ZN5daisy16AdcChannelConfig10InitSingleE12dsy_gpio_pin
 482              	.LVL21:
ARM GAS  C:\Users\matth\AppData\Local\Temp\ccy9EQ3E.s 			page 26


  49:test1.cpp     **** 	hw.adc.Init(analogInputs, 2);
 483              		.loc 6 49 2 is_stmt 1 view .LVU151
 484              	.LBB434:
 485              	.LBI434:
 294:../DaisyExamples/libDaisy//src/daisy_core.h ****     {
 486              		.loc 9 294 5 view .LVU152
 487              	.LBE434:
 488              		.loc 9 296 9 view .LVU153
 489              	.LBB436:
 490              	.LBB435:
 491              	.LBI435:
 217:../DaisyExamples/libDaisy//src/daisy_core.h **** {
 492              		.loc 9 217 27 view .LVU154
 493              	.LBE435:
 494              	.LBE436:
 219:../DaisyExamples/libDaisy//src/daisy_core.h ****     p.port = port;
 495              		.loc 9 219 5 view .LVU155
 220:../DaisyExamples/libDaisy//src/daisy_core.h ****     p.pin  = pin;
 496              		.loc 9 220 5 view .LVU156
 221:../DaisyExamples/libDaisy//src/daisy_core.h ****     return p;
 497              		.loc 9 221 5 view .LVU157
 222:../DaisyExamples/libDaisy//src/daisy_core.h **** }
 498              		.loc 9 222 5 view .LVU158
 222:../DaisyExamples/libDaisy//src/daisy_core.h **** }
 499              		.loc 9 222 5 is_stmt 0 view .LVU159
 500 010a 8DF81040 		strb	r4, [sp, #16]
 501 010e 8DF81180 		strb	r8, [sp, #17]
 502              	.LVL22:
  49:test1.cpp     **** 	hw.adc.Init(analogInputs, 2);
 503              		.loc 6 49 28 view .LVU160
 504 0112 0DF1A100 		add	r0, sp, #161
 505 0116 0499     		ldr	r1, [sp, #16]
 506 0118 1FAC     		add	r4, sp, #124
 507 011a FFF7FEFF 		bl	_ZN5daisy16AdcChannelConfig10InitSingleE12dsy_gpio_pin
 508              	.LVL23:
  50:test1.cpp     **** 	hw.adc.Start();
 509              		.loc 6 50 2 is_stmt 1 view .LVU161
  50:test1.cpp     **** 	hw.adc.Start();
 510              		.loc 6 50 13 is_stmt 0 view .LVU162
 511 011e 2A46     		mov	r2, r5
 512 0120 24A9     		add	r1, sp, #144
 513 0122 0423     		movs	r3, #4
 514 0124 7748     		ldr	r0, .L103+12
 515 0126 17AD     		add	r5, sp, #92
 516 0128 FFF7FEFF 		bl	_ZN5daisy9AdcHandle4InitEPNS_16AdcChannelConfigEjNS0_12OverSamplingE
 517              	.LVL24:
  51:test1.cpp     **** 
 518              		.loc 6 51 2 is_stmt 1 view .LVU163
  51:test1.cpp     **** 
 519              		.loc 6 51 14 is_stmt 0 view .LVU164
 520 012c 7548     		ldr	r0, .L103+12
 521 012e FFF7FEFF 		bl	_ZN5daisy9AdcHandle5StartEv
 522              	.LVL25:
  53:test1.cpp     **** 
 523              		.loc 6 53 2 is_stmt 1 view .LVU165
  56:test1.cpp     **** 	hw.PrintLine("STARTED");
 524              		.loc 6 56 5 view .LVU166
ARM GAS  C:\Users\matth\AppData\Local\Temp\ccy9EQ3E.s 			page 27


 525              	.LBB437:
 526              	.LBI437:
  23:../DaisyExamples/libDaisy//src/daisy_seed.h **** 
  24:../DaisyExamples/libDaisy//src/daisy_seed.h ****     /** This function used to provide a pre-initialization configuraiton 
  25:../DaisyExamples/libDaisy//src/daisy_seed.h ****      *  it has since been deprecated, and does nothing.
  26:../DaisyExamples/libDaisy//src/daisy_seed.h ****      */
  27:../DaisyExamples/libDaisy//src/daisy_seed.h ****     void Configure();
  28:../DaisyExamples/libDaisy//src/daisy_seed.h **** 
  29:../DaisyExamples/libDaisy//src/daisy_seed.h ****     /** 
  30:../DaisyExamples/libDaisy//src/daisy_seed.h ****     Initializes the Daisy Seed and the following peripherals:
  31:../DaisyExamples/libDaisy//src/daisy_seed.h ****     SDRAM, QSPI, 24-bit 48kHz Audio via AK4556, Internal USB,
  32:../DaisyExamples/libDaisy//src/daisy_seed.h ****     as well as the built-in LED and Testpoint.
  33:../DaisyExamples/libDaisy//src/daisy_seed.h **** 
  34:../DaisyExamples/libDaisy//src/daisy_seed.h ****     ADCs, DACs, and other special peripherals (such as I2C, SPI, etc.)
  35:../DaisyExamples/libDaisy//src/daisy_seed.h ****     can be initialized using their specific initializers within libdaisy
  36:../DaisyExamples/libDaisy//src/daisy_seed.h ****     for a specific application.
  37:../DaisyExamples/libDaisy//src/daisy_seed.h ****     */
  38:../DaisyExamples/libDaisy//src/daisy_seed.h ****     void Init(bool boost = false);
  39:../DaisyExamples/libDaisy//src/daisy_seed.h **** 
  40:../DaisyExamples/libDaisy//src/daisy_seed.h ****     /** 
  41:../DaisyExamples/libDaisy//src/daisy_seed.h ****     Deinitializes all peripherals automatically handled by `Init`.
  42:../DaisyExamples/libDaisy//src/daisy_seed.h ****     */
  43:../DaisyExamples/libDaisy//src/daisy_seed.h ****     void DeInit();
  44:../DaisyExamples/libDaisy//src/daisy_seed.h **** 
  45:../DaisyExamples/libDaisy//src/daisy_seed.h ****     /** 
  46:../DaisyExamples/libDaisy//src/daisy_seed.h ****     Wait some ms before going on.
  47:../DaisyExamples/libDaisy//src/daisy_seed.h ****     \param del Delay time in ms.
  48:../DaisyExamples/libDaisy//src/daisy_seed.h ****     */
  49:../DaisyExamples/libDaisy//src/daisy_seed.h ****     void DelayMs(size_t del);
  50:../DaisyExamples/libDaisy//src/daisy_seed.h **** 
  51:../DaisyExamples/libDaisy//src/daisy_seed.h ****     /** 
  52:../DaisyExamples/libDaisy//src/daisy_seed.h ****     Returns the gpio_pin corresponding to the index 0-31.
  53:../DaisyExamples/libDaisy//src/daisy_seed.h ****     For the given GPIO on the Daisy Seed (labeled 1-32 in docs).
  54:../DaisyExamples/libDaisy//src/daisy_seed.h ****     */
  55:../DaisyExamples/libDaisy//src/daisy_seed.h ****     static dsy_gpio_pin GetPin(uint8_t pin_idx);
  56:../DaisyExamples/libDaisy//src/daisy_seed.h **** 
  57:../DaisyExamples/libDaisy//src/daisy_seed.h ****     /** Begins the audio for the seeds builtin audio.
  58:../DaisyExamples/libDaisy//src/daisy_seed.h ****     the specified callback will get called whenever
  59:../DaisyExamples/libDaisy//src/daisy_seed.h ****     new data is ready to be prepared.
  60:../DaisyExamples/libDaisy//src/daisy_seed.h ****     */
  61:../DaisyExamples/libDaisy//src/daisy_seed.h ****     void StartAudio(AudioHandle::InterleavingAudioCallback cb);
  62:../DaisyExamples/libDaisy//src/daisy_seed.h **** 
  63:../DaisyExamples/libDaisy//src/daisy_seed.h ****     /** Begins the audio for the seeds builtin audio.
  64:../DaisyExamples/libDaisy//src/daisy_seed.h ****     the specified callback will get called whenever
  65:../DaisyExamples/libDaisy//src/daisy_seed.h ****     new data is ready to be prepared.
  66:../DaisyExamples/libDaisy//src/daisy_seed.h ****     This will use the newer non-interleaved callback.
  67:../DaisyExamples/libDaisy//src/daisy_seed.h ****     */
  68:../DaisyExamples/libDaisy//src/daisy_seed.h ****     void StartAudio(AudioHandle::AudioCallback cb);
  69:../DaisyExamples/libDaisy//src/daisy_seed.h **** 
  70:../DaisyExamples/libDaisy//src/daisy_seed.h ****     /** Changes to a new interleaved callback
  71:../DaisyExamples/libDaisy//src/daisy_seed.h ****      */
  72:../DaisyExamples/libDaisy//src/daisy_seed.h ****     void ChangeAudioCallback(AudioHandle::InterleavingAudioCallback cb);
  73:../DaisyExamples/libDaisy//src/daisy_seed.h **** 
  74:../DaisyExamples/libDaisy//src/daisy_seed.h ****     /** Changes to a new multichannel callback
  75:../DaisyExamples/libDaisy//src/daisy_seed.h ****      */
  76:../DaisyExamples/libDaisy//src/daisy_seed.h ****     void ChangeAudioCallback(AudioHandle::AudioCallback cb);
  77:../DaisyExamples/libDaisy//src/daisy_seed.h **** 
ARM GAS  C:\Users\matth\AppData\Local\Temp\ccy9EQ3E.s 			page 28


  78:../DaisyExamples/libDaisy//src/daisy_seed.h ****     /** Stops the audio if it is running. */
  79:../DaisyExamples/libDaisy//src/daisy_seed.h ****     void StopAudio();
  80:../DaisyExamples/libDaisy//src/daisy_seed.h **** 
  81:../DaisyExamples/libDaisy//src/daisy_seed.h ****     /** Updates the Audio Sample Rate, and reinitializes.
  82:../DaisyExamples/libDaisy//src/daisy_seed.h ****      ** Audio must be stopped for this to work.
  83:../DaisyExamples/libDaisy//src/daisy_seed.h ****      */
  84:../DaisyExamples/libDaisy//src/daisy_seed.h ****     void SetAudioSampleRate(SaiHandle::Config::SampleRate samplerate);
  85:../DaisyExamples/libDaisy//src/daisy_seed.h **** 
  86:../DaisyExamples/libDaisy//src/daisy_seed.h ****     /** Returns the audio sample rate in Hz as a floating point number.
  87:../DaisyExamples/libDaisy//src/daisy_seed.h ****      */
  88:../DaisyExamples/libDaisy//src/daisy_seed.h ****     float AudioSampleRate();
  89:../DaisyExamples/libDaisy//src/daisy_seed.h **** 
  90:../DaisyExamples/libDaisy//src/daisy_seed.h ****     /** Sets the number of samples processed per channel by the audio callback.
  91:../DaisyExamples/libDaisy//src/daisy_seed.h ****      */
  92:../DaisyExamples/libDaisy//src/daisy_seed.h ****     void SetAudioBlockSize(size_t blocksize);
  93:../DaisyExamples/libDaisy//src/daisy_seed.h **** 
  94:../DaisyExamples/libDaisy//src/daisy_seed.h ****     /** Returns the number of samples per channel in a block of audio. */
  95:../DaisyExamples/libDaisy//src/daisy_seed.h ****     size_t AudioBlockSize();
  96:../DaisyExamples/libDaisy//src/daisy_seed.h **** 
  97:../DaisyExamples/libDaisy//src/daisy_seed.h ****     /** Returns the rate in Hz that the Audio callback is called */
  98:../DaisyExamples/libDaisy//src/daisy_seed.h ****     float AudioCallbackRate() const;
  99:../DaisyExamples/libDaisy//src/daisy_seed.h **** 
 100:../DaisyExamples/libDaisy//src/daisy_seed.h ****     /** Sets the state of the built in LED
 101:../DaisyExamples/libDaisy//src/daisy_seed.h ****      */
 102:../DaisyExamples/libDaisy//src/daisy_seed.h ****     void SetLed(bool state);
 103:../DaisyExamples/libDaisy//src/daisy_seed.h **** 
 104:../DaisyExamples/libDaisy//src/daisy_seed.h ****     /** Sets the state of the test point near pin 10
 105:../DaisyExamples/libDaisy//src/daisy_seed.h ****      */
 106:../DaisyExamples/libDaisy//src/daisy_seed.h ****     void SetTestPoint(bool state);
 107:../DaisyExamples/libDaisy//src/daisy_seed.h **** 
 108:../DaisyExamples/libDaisy//src/daisy_seed.h ****     /** Print formatted debug log message
 109:../DaisyExamples/libDaisy//src/daisy_seed.h ****      */
 110:../DaisyExamples/libDaisy//src/daisy_seed.h ****     template <typename... VA>
 111:../DaisyExamples/libDaisy//src/daisy_seed.h ****     static void Print(const char* format, VA... va)
 112:../DaisyExamples/libDaisy//src/daisy_seed.h ****     {
 113:../DaisyExamples/libDaisy//src/daisy_seed.h ****         Log::Print(format, va...);
 114:../DaisyExamples/libDaisy//src/daisy_seed.h ****     }
 115:../DaisyExamples/libDaisy//src/daisy_seed.h **** 
 116:../DaisyExamples/libDaisy//src/daisy_seed.h ****     /** Print formatted debug log message with automatic line termination
 117:../DaisyExamples/libDaisy//src/daisy_seed.h ****     */
 118:../DaisyExamples/libDaisy//src/daisy_seed.h ****     template <typename... VA>
 119:../DaisyExamples/libDaisy//src/daisy_seed.h ****     static void PrintLine(const char* format, VA... va)
 120:../DaisyExamples/libDaisy//src/daisy_seed.h ****     {
 121:../DaisyExamples/libDaisy//src/daisy_seed.h ****         Log::PrintLine(format, va...);
 122:../DaisyExamples/libDaisy//src/daisy_seed.h ****     }
 123:../DaisyExamples/libDaisy//src/daisy_seed.h **** 
 124:../DaisyExamples/libDaisy//src/daisy_seed.h ****     /** Start the logging session. Optionally wait for terminal connection before proceeding.
 125:../DaisyExamples/libDaisy//src/daisy_seed.h ****     */
 126:../DaisyExamples/libDaisy//src/daisy_seed.h ****     static void StartLog(bool wait_for_pc = false)
 527              		.loc 1 126 17 view .LVU167
 528              	.LBB438:
 127:../DaisyExamples/libDaisy//src/daisy_seed.h ****     {
 128:../DaisyExamples/libDaisy//src/daisy_seed.h ****         Log::StartLog(wait_for_pc);
 529              		.loc 1 128 9 view .LVU168
 530              		.loc 1 128 22 is_stmt 0 view .LVU169
 531 0132 3846     		mov	r0, r7
 532 0134 FFF7FEFF 		bl	_ZN5daisy6LoggerILNS_17LoggerDestinationE1EE8StartLogEb
ARM GAS  C:\Users\matth\AppData\Local\Temp\ccy9EQ3E.s 			page 29


 533              	.LVL26:
 534              		.loc 1 128 22 view .LVU170
 535              	.LBE438:
 536              	.LBE437:
  57:test1.cpp     ****     // Print "Hello World" to the Serial Monitor
 537              		.loc 6 57 2 is_stmt 1 view .LVU171
 538              	.LBB439:
 539              	.LBI439:
 119:../DaisyExamples/libDaisy//src/daisy_seed.h ****     {
 540              		.loc 1 119 17 view .LVU172
 541              	.LBB440:
 121:../DaisyExamples/libDaisy//src/daisy_seed.h ****     }
 542              		.loc 1 121 23 is_stmt 0 view .LVU173
 543 0138 7348     		ldr	r0, .L103+16
 544 013a FFF7FEFF 		bl	_ZN5daisy6LoggerILNS_17LoggerDestinationE1EE9PrintLineEPKcz
 545              	.LVL27:
 121:../DaisyExamples/libDaisy//src/daisy_seed.h ****     }
 546              		.loc 1 121 23 view .LVU174
 547              	.LBE440:
 548              	.LBE439:
 549              		.loc 6 59 2 is_stmt 1 view .LVU175
 550              	.L63:
  60:test1.cpp     **** 
  61:test1.cpp     **** 	while(1) {
 551              		.loc 6 61 2 view .LVU176
 552              	.LBB441:
  62:test1.cpp     **** 		//led_state = !led_state;
  63:test1.cpp     **** 		for(int i=0; i<32; i++) {
 553              		.loc 6 63 3 view .LVU177
 554              	.LBB442:
 555              		.loc 6 63 17 view .LVU178
 556              		.loc 6 63 11 is_stmt 0 view .LVU179
 557 013e 0027     		movs	r7, #0
 558              	.LVL28:
 559              	.L15:
  64:test1.cpp     **** 			outputChain.Set(i,true);
 560              		.loc 6 64 4 is_stmt 1 discriminator 2 view .LVU180
 561              		.loc 6 64 19 is_stmt 0 discriminator 2 view .LVU181
 562 0140 0122     		movs	r2, #1
 563 0142 F9B2     		uxtb	r1, r7
 564 0144 0CA8     		add	r0, sp, #48
  63:test1.cpp     **** 			outputChain.Set(i,true);
 565              		.loc 6 63 3 discriminator 2 view .LVU182
 566 0146 1744     		add	r7, r7, r2
 567              	.LVL29:
 568              		.loc 6 64 19 discriminator 2 view .LVU183
 569 0148 FFF7FEFF 		bl	_ZN16ShiftRegister5953SetEhb
 570              	.LVL30:
  63:test1.cpp     **** 			outputChain.Set(i,true);
 571              		.loc 6 63 3 is_stmt 1 discriminator 2 view .LVU184
  63:test1.cpp     **** 			outputChain.Set(i,true);
 572              		.loc 6 63 17 discriminator 2 view .LVU185
 573 014c 202F     		cmp	r7, #32
 574 014e F7D1     		bne	.L15
 575              	.LBE442:
  65:test1.cpp     **** 		}
  66:test1.cpp     **** 		outputChain.Set(32,bitRead(analogChannel,0));
ARM GAS  C:\Users\matth\AppData\Local\Temp\ccy9EQ3E.s 			page 30


 576              		.loc 6 66 3 view .LVU186
 577              		.loc 6 66 18 is_stmt 0 view .LVU187
 578 0150 06F00109 		and	r9, r6, #1
  67:test1.cpp     **** 		outputChain.Set(33,bitRead(analogChannel,1));
 579              		.loc 6 67 18 view .LVU188
 580 0154 C6F34008 		ubfx	r8, r6, #1, #1
  66:test1.cpp     **** 		outputChain.Set(33,bitRead(analogChannel,1));
 581              		.loc 6 66 18 view .LVU189
 582 0158 3946     		mov	r1, r7
 583 015a 0CA8     		add	r0, sp, #48
  68:test1.cpp     **** 		outputChain.Set(34,bitRead(analogChannel,2));
 584              		.loc 6 68 18 view .LVU190
 585 015c C6F38007 		ubfx	r7, r6, #2, #1
 586              	.LVL31:
  66:test1.cpp     **** 		outputChain.Set(33,bitRead(analogChannel,1));
 587              		.loc 6 66 18 view .LVU191
 588 0160 4A46     		mov	r2, r9
 589 0162 FFF7FEFF 		bl	_ZN16ShiftRegister5953SetEhb
 590              	.LVL32:
  67:test1.cpp     **** 		outputChain.Set(33,bitRead(analogChannel,1));
 591              		.loc 6 67 3 is_stmt 1 view .LVU192
  67:test1.cpp     **** 		outputChain.Set(33,bitRead(analogChannel,1));
 592              		.loc 6 67 18 is_stmt 0 view .LVU193
 593 0166 4246     		mov	r2, r8
 594 0168 2121     		movs	r1, #33
 595 016a 0CA8     		add	r0, sp, #48
 596 016c FFF7FEFF 		bl	_ZN16ShiftRegister5953SetEhb
 597              	.LVL33:
 598              		.loc 6 68 3 is_stmt 1 view .LVU194
 599              		.loc 6 68 18 is_stmt 0 view .LVU195
 600 0170 3A46     		mov	r2, r7
 601 0172 2221     		movs	r1, #34
 602 0174 0CA8     		add	r0, sp, #48
 603 0176 FFF7FEFF 		bl	_ZN16ShiftRegister5953SetEhb
 604              	.LVL34:
  69:test1.cpp     **** 		outputChain.Set(35,bitRead(analogChannel,0));
 605              		.loc 6 69 3 is_stmt 1 view .LVU196
 606              		.loc 6 69 18 is_stmt 0 view .LVU197
 607 017a 4A46     		mov	r2, r9
 608 017c 2321     		movs	r1, #35
 609 017e 0CA8     		add	r0, sp, #48
 610 0180 FFF7FEFF 		bl	_ZN16ShiftRegister5953SetEhb
 611              	.LVL35:
  70:test1.cpp     **** 		outputChain.Set(36,bitRead(analogChannel,1));
 612              		.loc 6 70 3 is_stmt 1 view .LVU198
 613              		.loc 6 70 18 is_stmt 0 view .LVU199
 614 0184 4246     		mov	r2, r8
 615 0186 2421     		movs	r1, #36
 616 0188 0CA8     		add	r0, sp, #48
 617 018a FFF7FEFF 		bl	_ZN16ShiftRegister5953SetEhb
 618              	.LVL36:
  71:test1.cpp     **** 		outputChain.Set(37,bitRead(analogChannel,2));
 619              		.loc 6 71 3 is_stmt 1 view .LVU200
 620              		.loc 6 71 18 is_stmt 0 view .LVU201
 621 018e 3A46     		mov	r2, r7
 622 0190 2521     		movs	r1, #37
 623 0192 0CA8     		add	r0, sp, #48
ARM GAS  C:\Users\matth\AppData\Local\Temp\ccy9EQ3E.s 			page 31


 624 0194 FFF7FEFF 		bl	_ZN16ShiftRegister5953SetEhb
 625              	.LVL37:
  72:test1.cpp     **** 		outputChain.Set(38,true);
 626              		.loc 6 72 3 is_stmt 1 view .LVU202
 627              		.loc 6 72 18 is_stmt 0 view .LVU203
 628 0198 0122     		movs	r2, #1
 629 019a 2621     		movs	r1, #38
 630 019c 0CA8     		add	r0, sp, #48
 631 019e FFF7FEFF 		bl	_ZN16ShiftRegister5953SetEhb
 632              	.LVL38:
  73:test1.cpp     **** 		outputChain.Set(39,true);
 633              		.loc 6 73 3 is_stmt 1 view .LVU204
 634              		.loc 6 73 18 is_stmt 0 view .LVU205
 635 01a2 0122     		movs	r2, #1
 636 01a4 2721     		movs	r1, #39
 637 01a6 0CA8     		add	r0, sp, #48
 638 01a8 FFF7FEFF 		bl	_ZN16ShiftRegister5953SetEhb
 639              	.LVL39:
  74:test1.cpp     **** 		outputChain.Write();
 640              		.loc 6 74 3 is_stmt 1 view .LVU206
 641              		.loc 6 74 20 is_stmt 0 view .LVU207
 642 01ac 0CA8     		add	r0, sp, #48
 643 01ae FFF7FEFF 		bl	_ZN16ShiftRegister5955WriteEv
 644              	.LVL40:
  75:test1.cpp     **** 		inputChain.Update();
 645              		.loc 6 75 3 is_stmt 1 view .LVU208
 646              	.LBB443:
 647              	.LBI443:
  66:sr_165.h      ****         }
  67:sr_165.h      ****     }
  68:sr_165.h      **** 
  69:sr_165.h      ****     /** Reads the states of all pins on the connected device(s) */
  70:sr_165.h      ****     void Update()
 648              		.loc 7 70 10 view .LVU209
 649              	.LBB444:
  71:sr_165.h      ****     {
  72:sr_165.h      ****         dsy_gpio_write(&clk_, 1);
 650              		.loc 7 72 23 is_stmt 0 view .LVU210
 651 01b2 0121     		movs	r1, #1
 652 01b4 0DF1E200 		add	r0, sp, #226
 653 01b8 0DF1E207 		add	r7, sp, #226
 654 01bc FFF7FEFF 		bl	dsy_gpio_write
 655              	.LVL41:
  73:sr_165.h      ****         dsy_gpio_write(&latch_, 1);
 656              		.loc 7 73 23 view .LVU211
 657 01c0 0DF1E600 		add	r0, sp, #230
 658 01c4 0121     		movs	r1, #1
 659 01c6 FFF7FEFF 		bl	dsy_gpio_write
 660              	.LVL42:
  74:sr_165.h      ****         System::DelayTicks(1);
 661              		.loc 7 74 27 view .LVU212
 662 01ca 0120     		movs	r0, #1
 663 01cc FFF7FEFF 		bl	_ZN5daisy6System10DelayTicksEm
 664              	.LVL43:
 665              	.LBB445:
  75:sr_165.h      ****         uint32_t idx;
  76:sr_165.h      ****         for(size_t i = 0; i < 8 * num_daisychained; i++)
ARM GAS  C:\Users\matth\AppData\Local\Temp\ccy9EQ3E.s 			page 32


 666              		.loc 7 76 29 is_stmt 1 view .LVU213
 667              	.L16:
 668              	.LBB446:
  77:sr_165.h      ****         {
  78:sr_165.h      ****             dsy_gpio_write(&clk_, 1);
 669              		.loc 7 78 27 is_stmt 0 view .LVU214
 670 01d0 0121     		movs	r1, #1
 671 01d2 0DF1E200 		add	r0, sp, #226
 672 01d6 FFF7FEFF 		bl	dsy_gpio_write
 673              	.LVL44:
  79:sr_165.h      ****             System::DelayTicks(1);
 674              		.loc 7 79 31 view .LVU215
 675 01da 0120     		movs	r0, #1
 676 01dc FFF7FEFF 		bl	_ZN5daisy6System10DelayTicksEm
 677              	.LVL45:
 678              	.LBB447:
  80:sr_165.h      ****             for(size_t j = 0; j < num_parallel; j++)
 679              		.loc 7 80 33 is_stmt 1 view .LVU216
  81:sr_165.h      ****             {
  82:sr_165.h      ****                 idx = (8 * num_daisychained - 1) - i;
  83:sr_165.h      ****                 idx += (8 * num_daisychained * j);
  84:sr_165.h      ****                 states_[idx] = dsy_gpio_read(&data_[j]);
 680              		.loc 7 84 45 is_stmt 0 view .LVU217
 681 01e0 0DF1EA00 		add	r0, sp, #234
 682 01e4 FFF7FEFF 		bl	dsy_gpio_read
 683              	.LVL46:
 684 01e8 0038     		subs	r0, r0, #0
 685              	.LBE447:
  85:sr_165.h      ****             }
  86:sr_165.h      ****             dsy_gpio_write(&clk_, 0);
 686              		.loc 7 86 27 view .LVU218
 687 01ea 4FF00001 		mov	r1, #0
 688              	.LBB448:
  84:sr_165.h      ****             }
 689              		.loc 7 84 45 view .LVU219
 690 01ee 18BF     		it	ne
 691 01f0 0120     		movne	r0, #1
 692 01f2 07F8010D 		strb	r0, [r7, #-1]!
 693              	.LVL47:
  80:sr_165.h      ****             {
 694              		.loc 7 80 13 is_stmt 1 view .LVU220
  80:sr_165.h      ****             {
 695              		.loc 7 80 33 view .LVU221
 696              	.LBE448:
 697              		.loc 7 86 27 is_stmt 0 view .LVU222
 698 01f6 0DF1E200 		add	r0, sp, #226
 699 01fa FFF7FEFF 		bl	dsy_gpio_write
 700              	.LVL48:
  87:sr_165.h      ****             System::DelayTicks(1);
 701              		.loc 7 87 31 view .LVU223
 702 01fe 0120     		movs	r0, #1
 703 0200 FFF7FEFF 		bl	_ZN5daisy6System10DelayTicksEm
 704              	.LVL49:
 705              	.LBE446:
  76:sr_165.h      ****         {
 706              		.loc 7 76 9 is_stmt 1 view .LVU224
  76:sr_165.h      ****         {
ARM GAS  C:\Users\matth\AppData\Local\Temp\ccy9EQ3E.s 			page 33


 707              		.loc 7 76 29 view .LVU225
 708 0204 0DF1BA03 		add	r3, sp, #186
 709 0208 BB42     		cmp	r3, r7
 710 020a E1D1     		bne	.L16
 711              	.LBE445:
  88:sr_165.h      ****         }
  89:sr_165.h      ****         dsy_gpio_write(&latch_, 0);
 712              		.loc 7 89 23 is_stmt 0 view .LVU226
 713 020c 0021     		movs	r1, #0
 714 020e 0DF1E600 		add	r0, sp, #230
 715 0212 FFF7FEFF 		bl	dsy_gpio_write
 716              	.LVL50:
 717              		.loc 7 89 23 view .LVU227
 718              	.LBE444:
 719              	.LBE443:
  76:test1.cpp     **** 		bool anyHigh = false;
 720              		.loc 6 76 3 is_stmt 1 view .LVU228
  77:test1.cpp     **** 		if(analogChannel == 0) {
 721              		.loc 6 77 3 view .LVU229
 722              	.LBB449:
 723 0216 002E     		cmp	r6, #0
 724 0218 00F0F481 		beq	.L96
 725              	.L17:
 726              	.LBE449:
  78:test1.cpp     **** 			hw.PrintLine("Input readings:");
  79:test1.cpp     **** 			for(int i=0; i<40; i++) {
  80:test1.cpp     **** 				//hw.Print("\t");
  81:test1.cpp     **** 				hw.Print(inputChain.State(i)?"1":"0");
  82:test1.cpp     **** 			}
  83:test1.cpp     **** 			hw.Print("\n");
  84:test1.cpp     **** 		}
  85:test1.cpp     **** 		float analogReading1 = hw.adc.GetFloat(0);
 727              		.loc 6 85 3 view .LVU230
 728              		.loc 6 85 41 is_stmt 0 view .LVU231
 729 021c 0021     		movs	r1, #0
 730 021e 3948     		ldr	r0, .L103+12
 731 0220 FFF7FEFF 		bl	_ZNK5daisy9AdcHandle8GetFloatEh
 732              	.LVL51:
 733 0224 B0EE408A 		vmov.f32	s16, s0
 734              	.LVL52:
  86:test1.cpp     **** 		float analogReading2 = hw.adc.GetFloat(1);
 735              		.loc 6 86 3 is_stmt 1 view .LVU232
 736              		.loc 6 86 41 is_stmt 0 view .LVU233
 737 0228 3648     		ldr	r0, .L103+12
 738 022a 0121     		movs	r1, #1
 739 022c FFF7FEFF 		bl	_ZNK5daisy9AdcHandle8GetFloatEh
 740              	.LVL53:
 741              	.LBB459:
 742              	.LBB460:
 743              	.LBB461:
 744              		.file 11 "../DaisyExamples/libDaisy//src/util/FixedCapStr.h"
   1:../DaisyExamples/libDaisy//src/util/FixedCapStr.h **** /**	
   2:../DaisyExamples/libDaisy//src/util/FixedCapStr.h ****  * Copyright (C) Johannes Elliesen, 2021
   3:../DaisyExamples/libDaisy//src/util/FixedCapStr.h ****  */
   4:../DaisyExamples/libDaisy//src/util/FixedCapStr.h **** 
   5:../DaisyExamples/libDaisy//src/util/FixedCapStr.h **** #pragma once
   6:../DaisyExamples/libDaisy//src/util/FixedCapStr.h **** 
ARM GAS  C:\Users\matth\AppData\Local\Temp\ccy9EQ3E.s 			page 34


   7:../DaisyExamples/libDaisy//src/util/FixedCapStr.h **** #include <string_view>
   8:../DaisyExamples/libDaisy//src/util/FixedCapStr.h **** #include <algorithm>
   9:../DaisyExamples/libDaisy//src/util/FixedCapStr.h **** 
  10:../DaisyExamples/libDaisy//src/util/FixedCapStr.h **** namespace daisy
  11:../DaisyExamples/libDaisy//src/util/FixedCapStr.h **** {
  12:../DaisyExamples/libDaisy//src/util/FixedCapStr.h **** template <class CharType = char>
  13:../DaisyExamples/libDaisy//src/util/FixedCapStr.h **** class FixedCapStrBase
  14:../DaisyExamples/libDaisy//src/util/FixedCapStr.h **** {
  15:../DaisyExamples/libDaisy//src/util/FixedCapStr.h ****   public:
  16:../DaisyExamples/libDaisy//src/util/FixedCapStr.h ****     constexpr FixedCapStrBase(CharType* buffer, size_t capacity)
  17:../DaisyExamples/libDaisy//src/util/FixedCapStr.h ****     : capacity_(capacity), buffer_(buffer)
  18:../DaisyExamples/libDaisy//src/util/FixedCapStr.h ****     {
  19:../DaisyExamples/libDaisy//src/util/FixedCapStr.h ****     }
  20:../DaisyExamples/libDaisy//src/util/FixedCapStr.h **** 
  21:../DaisyExamples/libDaisy//src/util/FixedCapStr.h ****     constexpr FixedCapStrBase(const FixedCapStrBase& other) = delete;
  22:../DaisyExamples/libDaisy//src/util/FixedCapStr.h **** 
  23:../DaisyExamples/libDaisy//src/util/FixedCapStr.h ****     constexpr FixedCapStrBase& operator=(const FixedCapStrBase& str)
  24:../DaisyExamples/libDaisy//src/util/FixedCapStr.h ****     {
  25:../DaisyExamples/libDaisy//src/util/FixedCapStr.h ****         size_ = std::min(str.Size(), capacity_);
  26:../DaisyExamples/libDaisy//src/util/FixedCapStr.h ****         Copy_(str.Data(), str.Data() + size_, buffer_);
  27:../DaisyExamples/libDaisy//src/util/FixedCapStr.h ****         buffer_[size_] = 0;
  28:../DaisyExamples/libDaisy//src/util/FixedCapStr.h ****         return *this;
  29:../DaisyExamples/libDaisy//src/util/FixedCapStr.h ****     }
  30:../DaisyExamples/libDaisy//src/util/FixedCapStr.h **** 
  31:../DaisyExamples/libDaisy//src/util/FixedCapStr.h ****     constexpr FixedCapStrBase& operator=(const CharType* str)
  32:../DaisyExamples/libDaisy//src/util/FixedCapStr.h ****     {
  33:../DaisyExamples/libDaisy//src/util/FixedCapStr.h ****         size_ = std::min(strlen(str), capacity_);
  34:../DaisyExamples/libDaisy//src/util/FixedCapStr.h ****         Copy_(str, str + size_, buffer_);
  35:../DaisyExamples/libDaisy//src/util/FixedCapStr.h ****         buffer_[size_] = 0;
  36:../DaisyExamples/libDaisy//src/util/FixedCapStr.h ****         return *this;
  37:../DaisyExamples/libDaisy//src/util/FixedCapStr.h ****     }
  38:../DaisyExamples/libDaisy//src/util/FixedCapStr.h **** 
  39:../DaisyExamples/libDaisy//src/util/FixedCapStr.h ****     constexpr operator const CharType*() const noexcept { return buffer_; }
  40:../DaisyExamples/libDaisy//src/util/FixedCapStr.h ****     constexpr const CharType* Cstr() const noexcept { return buffer_; }
  41:../DaisyExamples/libDaisy//src/util/FixedCapStr.h ****     constexpr const CharType* Data() const noexcept { return buffer_; }
  42:../DaisyExamples/libDaisy//src/util/FixedCapStr.h ****     constexpr CharType*       Data() noexcept { return buffer_; }
  43:../DaisyExamples/libDaisy//src/util/FixedCapStr.h **** 
  44:../DaisyExamples/libDaisy//src/util/FixedCapStr.h ****     constexpr auto Size() const noexcept { return size_; }
  45:../DaisyExamples/libDaisy//src/util/FixedCapStr.h ****     constexpr auto UpdateSize() noexcept
  46:../DaisyExamples/libDaisy//src/util/FixedCapStr.h ****     {
  47:../DaisyExamples/libDaisy//src/util/FixedCapStr.h ****         size_          = std::min(strlen(buffer_), capacity_);
  48:../DaisyExamples/libDaisy//src/util/FixedCapStr.h ****         buffer_[size_] = 0;
  49:../DaisyExamples/libDaisy//src/util/FixedCapStr.h ****     }
  50:../DaisyExamples/libDaisy//src/util/FixedCapStr.h **** 
  51:../DaisyExamples/libDaisy//src/util/FixedCapStr.h ****     constexpr auto Capacity() const noexcept { return capacity_; }
  52:../DaisyExamples/libDaisy//src/util/FixedCapStr.h **** 
  53:../DaisyExamples/libDaisy//src/util/FixedCapStr.h ****     constexpr auto Empty() const noexcept { return size_ == 0; }
  54:../DaisyExamples/libDaisy//src/util/FixedCapStr.h **** 
  55:../DaisyExamples/libDaisy//src/util/FixedCapStr.h ****     constexpr void Clear() noexcept
  56:../DaisyExamples/libDaisy//src/util/FixedCapStr.h ****     {
  57:../DaisyExamples/libDaisy//src/util/FixedCapStr.h ****         size_      = 0;
  58:../DaisyExamples/libDaisy//src/util/FixedCapStr.h ****         buffer_[0] = '\0';
  59:../DaisyExamples/libDaisy//src/util/FixedCapStr.h ****     }
  60:../DaisyExamples/libDaisy//src/util/FixedCapStr.h **** 
  61:../DaisyExamples/libDaisy//src/util/FixedCapStr.h ****     constexpr void Reset(const CharType* str)
  62:../DaisyExamples/libDaisy//src/util/FixedCapStr.h ****     {
  63:../DaisyExamples/libDaisy//src/util/FixedCapStr.h ****         size_ = std::min(strlen(str), capacity_);
ARM GAS  C:\Users\matth\AppData\Local\Temp\ccy9EQ3E.s 			page 35


  64:../DaisyExamples/libDaisy//src/util/FixedCapStr.h ****         Reset_(str, size_);
  65:../DaisyExamples/libDaisy//src/util/FixedCapStr.h ****     }
  66:../DaisyExamples/libDaisy//src/util/FixedCapStr.h **** 
  67:../DaisyExamples/libDaisy//src/util/FixedCapStr.h ****     constexpr void Reset(const CharType* str, std::size_t length)
  68:../DaisyExamples/libDaisy//src/util/FixedCapStr.h ****     {
  69:../DaisyExamples/libDaisy//src/util/FixedCapStr.h ****         size_ = std::min(length, capacity_);
  70:../DaisyExamples/libDaisy//src/util/FixedCapStr.h ****         Reset_(str, size_);
  71:../DaisyExamples/libDaisy//src/util/FixedCapStr.h ****     }
  72:../DaisyExamples/libDaisy//src/util/FixedCapStr.h **** 
  73:../DaisyExamples/libDaisy//src/util/FixedCapStr.h ****     constexpr void ResetAt(const CharType* str, std::size_t writePosition)
  74:../DaisyExamples/libDaisy//src/util/FixedCapStr.h ****     {
  75:../DaisyExamples/libDaisy//src/util/FixedCapStr.h ****         if(writePosition > size_)
  76:../DaisyExamples/libDaisy//src/util/FixedCapStr.h ****             return;
  77:../DaisyExamples/libDaisy//src/util/FixedCapStr.h ****         const auto strLen = strlen(str);
  78:../DaisyExamples/libDaisy//src/util/FixedCapStr.h ****         const auto newSize
  79:../DaisyExamples/libDaisy//src/util/FixedCapStr.h ****             = std::max(std::min(strLen + writePosition, capacity_), size_);
  80:../DaisyExamples/libDaisy//src/util/FixedCapStr.h ****         const auto numCharsToWrite = std::min(newSize - writePosition, strLen);
  81:../DaisyExamples/libDaisy//src/util/FixedCapStr.h ****         size_                      = newSize;
  82:../DaisyExamples/libDaisy//src/util/FixedCapStr.h ****         ResetAt_(str, numCharsToWrite, writePosition);
  83:../DaisyExamples/libDaisy//src/util/FixedCapStr.h ****     }
  84:../DaisyExamples/libDaisy//src/util/FixedCapStr.h **** 
  85:../DaisyExamples/libDaisy//src/util/FixedCapStr.h ****     constexpr void Append(const CharType singleChar)
  86:../DaisyExamples/libDaisy//src/util/FixedCapStr.h ****     {
  87:../DaisyExamples/libDaisy//src/util/FixedCapStr.h ****         if(size_ < capacity_)
  88:../DaisyExamples/libDaisy//src/util/FixedCapStr.h ****         {
  89:../DaisyExamples/libDaisy//src/util/FixedCapStr.h ****             buffer_[size_]     = singleChar;
  90:../DaisyExamples/libDaisy//src/util/FixedCapStr.h ****             buffer_[size_ + 1] = '\0';
  91:../DaisyExamples/libDaisy//src/util/FixedCapStr.h ****             size_++;
  92:../DaisyExamples/libDaisy//src/util/FixedCapStr.h ****         }
  93:../DaisyExamples/libDaisy//src/util/FixedCapStr.h ****     }
  94:../DaisyExamples/libDaisy//src/util/FixedCapStr.h **** 
  95:../DaisyExamples/libDaisy//src/util/FixedCapStr.h ****     constexpr void Append(const CharType* str)
  96:../DaisyExamples/libDaisy//src/util/FixedCapStr.h ****     {
  97:../DaisyExamples/libDaisy//src/util/FixedCapStr.h ****         auto to_copy = std::min(strlen(str), (capacity_ - size_));
  98:../DaisyExamples/libDaisy//src/util/FixedCapStr.h ****         Append_(str, to_copy);
  99:../DaisyExamples/libDaisy//src/util/FixedCapStr.h ****     }
 100:../DaisyExamples/libDaisy//src/util/FixedCapStr.h **** 
 101:../DaisyExamples/libDaisy//src/util/FixedCapStr.h ****     constexpr void Append(const CharType* str, std::size_t length)
 102:../DaisyExamples/libDaisy//src/util/FixedCapStr.h ****     {
 103:../DaisyExamples/libDaisy//src/util/FixedCapStr.h ****         auto to_copy = std::min(length, (capacity_ - size_));
 104:../DaisyExamples/libDaisy//src/util/FixedCapStr.h ****         Append_(str, to_copy);
 105:../DaisyExamples/libDaisy//src/util/FixedCapStr.h ****     }
 106:../DaisyExamples/libDaisy//src/util/FixedCapStr.h **** 
 107:../DaisyExamples/libDaisy//src/util/FixedCapStr.h ****     template <typename IntType>
 108:../DaisyExamples/libDaisy//src/util/FixedCapStr.h ****     constexpr void AppendInt(IntType value, bool alwaysIncludeSign = false)
 109:../DaisyExamples/libDaisy//src/util/FixedCapStr.h ****     {
 110:../DaisyExamples/libDaisy//src/util/FixedCapStr.h ****         if(value == 0)
 111:../DaisyExamples/libDaisy//src/util/FixedCapStr.h ****         {
 112:../DaisyExamples/libDaisy//src/util/FixedCapStr.h ****             if(alwaysIncludeSign)
 113:../DaisyExamples/libDaisy//src/util/FixedCapStr.h ****                 Append('+');
 114:../DaisyExamples/libDaisy//src/util/FixedCapStr.h ****             Append("0");
 115:../DaisyExamples/libDaisy//src/util/FixedCapStr.h ****             return;
 116:../DaisyExamples/libDaisy//src/util/FixedCapStr.h ****         }
 117:../DaisyExamples/libDaisy//src/util/FixedCapStr.h **** 
 118:../DaisyExamples/libDaisy//src/util/FixedCapStr.h ****         if(value < 0)
 119:../DaisyExamples/libDaisy//src/util/FixedCapStr.h ****         {
 120:../DaisyExamples/libDaisy//src/util/FixedCapStr.h ****             value = -value;
ARM GAS  C:\Users\matth\AppData\Local\Temp\ccy9EQ3E.s 			page 36


 121:../DaisyExamples/libDaisy//src/util/FixedCapStr.h ****             Append('-');
 122:../DaisyExamples/libDaisy//src/util/FixedCapStr.h ****         }
 123:../DaisyExamples/libDaisy//src/util/FixedCapStr.h ****         else if(alwaysIncludeSign)
 124:../DaisyExamples/libDaisy//src/util/FixedCapStr.h ****             Append('+');
 125:../DaisyExamples/libDaisy//src/util/FixedCapStr.h **** 
 126:../DaisyExamples/libDaisy//src/util/FixedCapStr.h ****         const auto firstDigit = Size();
 127:../DaisyExamples/libDaisy//src/util/FixedCapStr.h ****         while(value != 0)
 128:../DaisyExamples/libDaisy//src/util/FixedCapStr.h ****         {
 129:../DaisyExamples/libDaisy//src/util/FixedCapStr.h ****             const auto rem = value % 10;
 130:../DaisyExamples/libDaisy//src/util/FixedCapStr.h ****             value          = value / 10;
 131:../DaisyExamples/libDaisy//src/util/FixedCapStr.h ****             Append(rem + '0');
 132:../DaisyExamples/libDaisy//src/util/FixedCapStr.h ****         }
 133:../DaisyExamples/libDaisy//src/util/FixedCapStr.h ****         const auto lastDigit = Size() - 1;
 134:../DaisyExamples/libDaisy//src/util/FixedCapStr.h ****         ReverseSection(firstDigit, lastDigit);
 135:../DaisyExamples/libDaisy//src/util/FixedCapStr.h ****     }
 136:../DaisyExamples/libDaisy//src/util/FixedCapStr.h **** 
 137:../DaisyExamples/libDaisy//src/util/FixedCapStr.h ****     constexpr void AppendFloat(float value,
 138:../DaisyExamples/libDaisy//src/util/FixedCapStr.h ****                                int   maxNumDigits      = 2,
 139:../DaisyExamples/libDaisy//src/util/FixedCapStr.h ****                                bool  omitTrailingZeros = false,
 140:../DaisyExamples/libDaisy//src/util/FixedCapStr.h ****                                bool  alwaysIncludeSign = false)
 141:../DaisyExamples/libDaisy//src/util/FixedCapStr.h ****     {
 142:../DaisyExamples/libDaisy//src/util/FixedCapStr.h ****         if(value == 0.0f)
 143:../DaisyExamples/libDaisy//src/util/FixedCapStr.h ****         {
 144:../DaisyExamples/libDaisy//src/util/FixedCapStr.h ****             if(alwaysIncludeSign)
 145:../DaisyExamples/libDaisy//src/util/FixedCapStr.h ****                 Append('+');
 146:../DaisyExamples/libDaisy//src/util/FixedCapStr.h ****             Append("0");
 147:../DaisyExamples/libDaisy//src/util/FixedCapStr.h ****             if((!omitTrailingZeros) && (maxNumDigits > 0))
 148:../DaisyExamples/libDaisy//src/util/FixedCapStr.h ****             {
 149:../DaisyExamples/libDaisy//src/util/FixedCapStr.h ****                 Append(".");
 150:../DaisyExamples/libDaisy//src/util/FixedCapStr.h ****                 for(int i = 0; i < maxNumDigits; i++)
 151:../DaisyExamples/libDaisy//src/util/FixedCapStr.h ****                     Append("0");
 152:../DaisyExamples/libDaisy//src/util/FixedCapStr.h ****             }
 153:../DaisyExamples/libDaisy//src/util/FixedCapStr.h ****             return;
 154:../DaisyExamples/libDaisy//src/util/FixedCapStr.h ****         }
 155:../DaisyExamples/libDaisy//src/util/FixedCapStr.h **** 
 156:../DaisyExamples/libDaisy//src/util/FixedCapStr.h ****         if(value < 0)
 157:../DaisyExamples/libDaisy//src/util/FixedCapStr.h ****         {
 158:../DaisyExamples/libDaisy//src/util/FixedCapStr.h ****             value = -value;
 159:../DaisyExamples/libDaisy//src/util/FixedCapStr.h ****             Append('-');
 160:../DaisyExamples/libDaisy//src/util/FixedCapStr.h ****         }
 161:../DaisyExamples/libDaisy//src/util/FixedCapStr.h ****         else if(alwaysIncludeSign)
 162:../DaisyExamples/libDaisy//src/util/FixedCapStr.h ****             Append('+');
 163:../DaisyExamples/libDaisy//src/util/FixedCapStr.h **** 
 164:../DaisyExamples/libDaisy//src/util/FixedCapStr.h ****         float         factor    = 1;
 165:../DaisyExamples/libDaisy//src/util/FixedCapStr.h ****         constexpr int tableSize = 10;
 166:../DaisyExamples/libDaisy//src/util/FixedCapStr.h ****         // clang-format off
 167:../DaisyExamples/libDaisy//src/util/FixedCapStr.h ****         constexpr float powTable[tableSize] = {
 168:../DaisyExamples/libDaisy//src/util/FixedCapStr.h ****             1.0f,
 169:../DaisyExamples/libDaisy//src/util/FixedCapStr.h ****             10.0f,
 170:../DaisyExamples/libDaisy//src/util/FixedCapStr.h ****             100.0f,
 171:../DaisyExamples/libDaisy//src/util/FixedCapStr.h ****             1000.0f,
 172:../DaisyExamples/libDaisy//src/util/FixedCapStr.h ****             10000.0f,
 173:../DaisyExamples/libDaisy//src/util/FixedCapStr.h ****             100000.0f,
 174:../DaisyExamples/libDaisy//src/util/FixedCapStr.h ****             1000000.0f,
 175:../DaisyExamples/libDaisy//src/util/FixedCapStr.h ****             10000000.0f,
 176:../DaisyExamples/libDaisy//src/util/FixedCapStr.h ****             100000000.0f,
 177:../DaisyExamples/libDaisy//src/util/FixedCapStr.h ****             1000000000.0f
ARM GAS  C:\Users\matth\AppData\Local\Temp\ccy9EQ3E.s 			page 37


 178:../DaisyExamples/libDaisy//src/util/FixedCapStr.h ****         };
 179:../DaisyExamples/libDaisy//src/util/FixedCapStr.h ****         constexpr float roundOffsTable[tableSize] = {
 180:../DaisyExamples/libDaisy//src/util/FixedCapStr.h ****             0.5f,
 181:../DaisyExamples/libDaisy//src/util/FixedCapStr.h ****             0.05f,
 182:../DaisyExamples/libDaisy//src/util/FixedCapStr.h ****             0.005f,
 183:../DaisyExamples/libDaisy//src/util/FixedCapStr.h ****             0.0005f,
 184:../DaisyExamples/libDaisy//src/util/FixedCapStr.h ****             0.00005f,
 185:../DaisyExamples/libDaisy//src/util/FixedCapStr.h ****             0.000005f,
 186:../DaisyExamples/libDaisy//src/util/FixedCapStr.h ****             0.0000005f,
 187:../DaisyExamples/libDaisy//src/util/FixedCapStr.h ****             0.00000005f,
 188:../DaisyExamples/libDaisy//src/util/FixedCapStr.h ****             0.000000005f,
 189:../DaisyExamples/libDaisy//src/util/FixedCapStr.h ****         };
 190:../DaisyExamples/libDaisy//src/util/FixedCapStr.h ****         // clang-format on
 191:../DaisyExamples/libDaisy//src/util/FixedCapStr.h ****         if(maxNumDigits <= tableSize)
 192:../DaisyExamples/libDaisy//src/util/FixedCapStr.h ****         {
 193:../DaisyExamples/libDaisy//src/util/FixedCapStr.h ****             factor = powTable[maxNumDigits];
 194:../DaisyExamples/libDaisy//src/util/FixedCapStr.h ****             value += roundOffsTable[maxNumDigits];
 195:../DaisyExamples/libDaisy//src/util/FixedCapStr.h ****         }
 196:../DaisyExamples/libDaisy//src/util/FixedCapStr.h ****         else
 197:../DaisyExamples/libDaisy//src/util/FixedCapStr.h ****         {
 198:../DaisyExamples/libDaisy//src/util/FixedCapStr.h ****             float roundOffs = 0.5f;
 199:../DaisyExamples/libDaisy//src/util/FixedCapStr.h ****             for(int i = 0; i < maxNumDigits; i++)
 200:../DaisyExamples/libDaisy//src/util/FixedCapStr.h ****             {
 201:../DaisyExamples/libDaisy//src/util/FixedCapStr.h ****                 factor *= 10.0f;
 202:../DaisyExamples/libDaisy//src/util/FixedCapStr.h ****                 roundOffs /= 10.0f;
 203:../DaisyExamples/libDaisy//src/util/FixedCapStr.h ****             }
 204:../DaisyExamples/libDaisy//src/util/FixedCapStr.h ****             value += roundOffs;
 205:../DaisyExamples/libDaisy//src/util/FixedCapStr.h ****         }
 206:../DaisyExamples/libDaisy//src/util/FixedCapStr.h **** 
 207:../DaisyExamples/libDaisy//src/util/FixedCapStr.h ****         int beforeDecPt = int(value);
 208:../DaisyExamples/libDaisy//src/util/FixedCapStr.h ****         int afterDecPt  = int(value * factor);
 209:../DaisyExamples/libDaisy//src/util/FixedCapStr.h **** 
 210:../DaisyExamples/libDaisy//src/util/FixedCapStr.h ****         const auto firstDigit = Size();
 211:../DaisyExamples/libDaisy//src/util/FixedCapStr.h ****         // print digits after the decimal point
 212:../DaisyExamples/libDaisy//src/util/FixedCapStr.h ****         for(int i = 0; i < maxNumDigits; i++)
 213:../DaisyExamples/libDaisy//src/util/FixedCapStr.h ****         {
 214:../DaisyExamples/libDaisy//src/util/FixedCapStr.h ****             const auto rem = afterDecPt % 10;
 215:../DaisyExamples/libDaisy//src/util/FixedCapStr.h ****             afterDecPt     = afterDecPt / 10;
 216:../DaisyExamples/libDaisy//src/util/FixedCapStr.h ****             if((rem == 0) && (omitTrailingZeros))
 217:../DaisyExamples/libDaisy//src/util/FixedCapStr.h ****                 continue;
 218:../DaisyExamples/libDaisy//src/util/FixedCapStr.h ****             Append(rem + '0');
 219:../DaisyExamples/libDaisy//src/util/FixedCapStr.h ****         }
 220:../DaisyExamples/libDaisy//src/util/FixedCapStr.h ****         // print decimal point
 221:../DaisyExamples/libDaisy//src/util/FixedCapStr.h ****         if(Size() != firstDigit)
 222:../DaisyExamples/libDaisy//src/util/FixedCapStr.h ****             Append('.');
 223:../DaisyExamples/libDaisy//src/util/FixedCapStr.h ****         // print digits before the decimal point
 224:../DaisyExamples/libDaisy//src/util/FixedCapStr.h ****         if(beforeDecPt == 0)
 225:../DaisyExamples/libDaisy//src/util/FixedCapStr.h ****             Append('0');
 226:../DaisyExamples/libDaisy//src/util/FixedCapStr.h ****         else
 227:../DaisyExamples/libDaisy//src/util/FixedCapStr.h ****         {
 228:../DaisyExamples/libDaisy//src/util/FixedCapStr.h ****             while(beforeDecPt != 0)
 229:../DaisyExamples/libDaisy//src/util/FixedCapStr.h ****             {
 230:../DaisyExamples/libDaisy//src/util/FixedCapStr.h ****                 const auto rem = beforeDecPt % 10;
 231:../DaisyExamples/libDaisy//src/util/FixedCapStr.h ****                 beforeDecPt    = beforeDecPt / 10;
 232:../DaisyExamples/libDaisy//src/util/FixedCapStr.h ****                 Append(rem + '0');
 233:../DaisyExamples/libDaisy//src/util/FixedCapStr.h ****             }
 234:../DaisyExamples/libDaisy//src/util/FixedCapStr.h ****         }
ARM GAS  C:\Users\matth\AppData\Local\Temp\ccy9EQ3E.s 			page 38


 235:../DaisyExamples/libDaisy//src/util/FixedCapStr.h ****         const auto lastDigit = Size() - 1;
 236:../DaisyExamples/libDaisy//src/util/FixedCapStr.h ****         ReverseSection(firstDigit, lastDigit);
 237:../DaisyExamples/libDaisy//src/util/FixedCapStr.h ****     }
 238:../DaisyExamples/libDaisy//src/util/FixedCapStr.h **** 
 239:../DaisyExamples/libDaisy//src/util/FixedCapStr.h ****     constexpr bool StartsWith(const CharType* pattern) const noexcept
 240:../DaisyExamples/libDaisy//src/util/FixedCapStr.h ****     {
 241:../DaisyExamples/libDaisy//src/util/FixedCapStr.h ****         const CharType* ptr = buffer_;
 242:../DaisyExamples/libDaisy//src/util/FixedCapStr.h ****         while(*pattern)
 243:../DaisyExamples/libDaisy//src/util/FixedCapStr.h ****         {
 244:../DaisyExamples/libDaisy//src/util/FixedCapStr.h ****             if(*ptr != *pattern)
 245:../DaisyExamples/libDaisy//src/util/FixedCapStr.h ****                 return false;
 246:../DaisyExamples/libDaisy//src/util/FixedCapStr.h ****             pattern++;
 247:../DaisyExamples/libDaisy//src/util/FixedCapStr.h ****             ptr++;
 248:../DaisyExamples/libDaisy//src/util/FixedCapStr.h ****         }
 249:../DaisyExamples/libDaisy//src/util/FixedCapStr.h ****         return true;
 250:../DaisyExamples/libDaisy//src/util/FixedCapStr.h ****     }
 251:../DaisyExamples/libDaisy//src/util/FixedCapStr.h **** 
 252:../DaisyExamples/libDaisy//src/util/FixedCapStr.h ****     constexpr bool
 253:../DaisyExamples/libDaisy//src/util/FixedCapStr.h ****     StartsWithIgnoringCase(const CharType* pattern) const noexcept
 254:../DaisyExamples/libDaisy//src/util/FixedCapStr.h ****     {
 255:../DaisyExamples/libDaisy//src/util/FixedCapStr.h ****         const CharType* ptr = buffer_;
 256:../DaisyExamples/libDaisy//src/util/FixedCapStr.h ****         while(*pattern)
 257:../DaisyExamples/libDaisy//src/util/FixedCapStr.h ****         {
 258:../DaisyExamples/libDaisy//src/util/FixedCapStr.h ****             if(ToUpper_(*ptr) != ToUpper_(*pattern))
 259:../DaisyExamples/libDaisy//src/util/FixedCapStr.h ****                 return false;
 260:../DaisyExamples/libDaisy//src/util/FixedCapStr.h ****             pattern++;
 261:../DaisyExamples/libDaisy//src/util/FixedCapStr.h ****             ptr++;
 262:../DaisyExamples/libDaisy//src/util/FixedCapStr.h ****         }
 263:../DaisyExamples/libDaisy//src/util/FixedCapStr.h ****         return true;
 264:../DaisyExamples/libDaisy//src/util/FixedCapStr.h ****     }
 265:../DaisyExamples/libDaisy//src/util/FixedCapStr.h **** 
 266:../DaisyExamples/libDaisy//src/util/FixedCapStr.h ****     constexpr bool EndsWith(const CharType* pattern) const noexcept
 267:../DaisyExamples/libDaisy//src/util/FixedCapStr.h ****     {
 268:../DaisyExamples/libDaisy//src/util/FixedCapStr.h ****         const CharType* ptr           = &buffer_[size_ - 1];
 269:../DaisyExamples/libDaisy//src/util/FixedCapStr.h ****         const auto      patternLength = strlen(pattern);
 270:../DaisyExamples/libDaisy//src/util/FixedCapStr.h ****         const CharType* patternPtr    = pattern + patternLength - 1;
 271:../DaisyExamples/libDaisy//src/util/FixedCapStr.h ****         while(patternPtr > pattern)
 272:../DaisyExamples/libDaisy//src/util/FixedCapStr.h ****         {
 273:../DaisyExamples/libDaisy//src/util/FixedCapStr.h ****             if(*ptr != *patternPtr)
 274:../DaisyExamples/libDaisy//src/util/FixedCapStr.h ****                 return false;
 275:../DaisyExamples/libDaisy//src/util/FixedCapStr.h ****             patternPtr--;
 276:../DaisyExamples/libDaisy//src/util/FixedCapStr.h ****             ptr--;
 277:../DaisyExamples/libDaisy//src/util/FixedCapStr.h ****         }
 278:../DaisyExamples/libDaisy//src/util/FixedCapStr.h ****         return *ptr == *patternPtr;
 279:../DaisyExamples/libDaisy//src/util/FixedCapStr.h ****     }
 280:../DaisyExamples/libDaisy//src/util/FixedCapStr.h **** 
 281:../DaisyExamples/libDaisy//src/util/FixedCapStr.h ****     constexpr bool EndsWithIgnoringCase(const CharType* pattern) const noexcept
 282:../DaisyExamples/libDaisy//src/util/FixedCapStr.h ****     {
 283:../DaisyExamples/libDaisy//src/util/FixedCapStr.h ****         const CharType* ptr           = &buffer_[size_ - 1];
 284:../DaisyExamples/libDaisy//src/util/FixedCapStr.h ****         const auto      patternLength = strlen(pattern);
 285:../DaisyExamples/libDaisy//src/util/FixedCapStr.h ****         const CharType* patternPtr    = pattern + patternLength - 1;
 286:../DaisyExamples/libDaisy//src/util/FixedCapStr.h ****         while(patternPtr > pattern)
 287:../DaisyExamples/libDaisy//src/util/FixedCapStr.h ****         {
 288:../DaisyExamples/libDaisy//src/util/FixedCapStr.h ****             if(ToUpper_(*ptr) != ToUpper_(*patternPtr))
 289:../DaisyExamples/libDaisy//src/util/FixedCapStr.h ****                 return false;
 290:../DaisyExamples/libDaisy//src/util/FixedCapStr.h ****             patternPtr--;
 291:../DaisyExamples/libDaisy//src/util/FixedCapStr.h ****             ptr--;
ARM GAS  C:\Users\matth\AppData\Local\Temp\ccy9EQ3E.s 			page 39


 292:../DaisyExamples/libDaisy//src/util/FixedCapStr.h ****         }
 293:../DaisyExamples/libDaisy//src/util/FixedCapStr.h ****         return ToUpper_(*ptr) == ToUpper_(*patternPtr);
 294:../DaisyExamples/libDaisy//src/util/FixedCapStr.h ****     }
 295:../DaisyExamples/libDaisy//src/util/FixedCapStr.h **** 
 296:../DaisyExamples/libDaisy//src/util/FixedCapStr.h ****     constexpr void RemovePrefix(std::size_t length)
 297:../DaisyExamples/libDaisy//src/util/FixedCapStr.h ****     {
 298:../DaisyExamples/libDaisy//src/util/FixedCapStr.h ****         Copy_(buffer_ + length, buffer_ + size_, buffer_);
 299:../DaisyExamples/libDaisy//src/util/FixedCapStr.h ****         size_ -= length;
 300:../DaisyExamples/libDaisy//src/util/FixedCapStr.h ****         buffer_[size_] = '\0';
 301:../DaisyExamples/libDaisy//src/util/FixedCapStr.h ****     }
 302:../DaisyExamples/libDaisy//src/util/FixedCapStr.h **** 
 303:../DaisyExamples/libDaisy//src/util/FixedCapStr.h ****     constexpr void RemoveSuffix(std::size_t length) noexcept
 304:../DaisyExamples/libDaisy//src/util/FixedCapStr.h ****     {
 305:../DaisyExamples/libDaisy//src/util/FixedCapStr.h ****         size_          = size_ - length;
 306:../DaisyExamples/libDaisy//src/util/FixedCapStr.h ****         buffer_[size_] = '\0';
 307:../DaisyExamples/libDaisy//src/util/FixedCapStr.h ****     }
 308:../DaisyExamples/libDaisy//src/util/FixedCapStr.h **** 
 309:../DaisyExamples/libDaisy//src/util/FixedCapStr.h ****     constexpr void ReverseSection(std::size_t firstIdx, std::size_t lastIdx)
 310:../DaisyExamples/libDaisy//src/util/FixedCapStr.h ****     {
 311:../DaisyExamples/libDaisy//src/util/FixedCapStr.h ****         firstIdx = clamp(firstIdx, 0, size_ - 1);
 312:../DaisyExamples/libDaisy//src/util/FixedCapStr.h ****         lastIdx  = clamp(lastIdx, 0, size_ - 1);
 313:../DaisyExamples/libDaisy//src/util/FixedCapStr.h ****         while(firstIdx < lastIdx)
 314:../DaisyExamples/libDaisy//src/util/FixedCapStr.h ****         {
 315:../DaisyExamples/libDaisy//src/util/FixedCapStr.h ****             CharType tmp      = buffer_[lastIdx];
 316:../DaisyExamples/libDaisy//src/util/FixedCapStr.h ****             buffer_[lastIdx]  = buffer_[firstIdx];
 317:../DaisyExamples/libDaisy//src/util/FixedCapStr.h ****             buffer_[firstIdx] = tmp;
 318:../DaisyExamples/libDaisy//src/util/FixedCapStr.h ****             firstIdx++;
 319:../DaisyExamples/libDaisy//src/util/FixedCapStr.h ****             lastIdx--;
 320:../DaisyExamples/libDaisy//src/util/FixedCapStr.h ****         }
 321:../DaisyExamples/libDaisy//src/util/FixedCapStr.h ****     }
 322:../DaisyExamples/libDaisy//src/util/FixedCapStr.h **** 
 323:../DaisyExamples/libDaisy//src/util/FixedCapStr.h ****     constexpr bool operator==(const CharType* rhs) const
 324:../DaisyExamples/libDaisy//src/util/FixedCapStr.h ****     {
 325:../DaisyExamples/libDaisy//src/util/FixedCapStr.h ****         const CharType* ptr = buffer_;
 326:../DaisyExamples/libDaisy//src/util/FixedCapStr.h ****         while(*rhs && *ptr) // abort on first string end
 327:../DaisyExamples/libDaisy//src/util/FixedCapStr.h ****         {
 328:../DaisyExamples/libDaisy//src/util/FixedCapStr.h ****             if(*ptr != *rhs)
 329:../DaisyExamples/libDaisy//src/util/FixedCapStr.h ****                 return false;
 330:../DaisyExamples/libDaisy//src/util/FixedCapStr.h ****             rhs++;
 331:../DaisyExamples/libDaisy//src/util/FixedCapStr.h ****             ptr++;
 332:../DaisyExamples/libDaisy//src/util/FixedCapStr.h ****         }
 333:../DaisyExamples/libDaisy//src/util/FixedCapStr.h **** 
 334:../DaisyExamples/libDaisy//src/util/FixedCapStr.h ****         return *rhs == *ptr; // both strings ended at the same '0'?
 335:../DaisyExamples/libDaisy//src/util/FixedCapStr.h ****     }
 336:../DaisyExamples/libDaisy//src/util/FixedCapStr.h **** 
 337:../DaisyExamples/libDaisy//src/util/FixedCapStr.h ****     constexpr bool operator!=(const CharType* rhs) const
 338:../DaisyExamples/libDaisy//src/util/FixedCapStr.h ****     {
 339:../DaisyExamples/libDaisy//src/util/FixedCapStr.h ****         return !(*this == rhs);
 340:../DaisyExamples/libDaisy//src/util/FixedCapStr.h ****     }
 341:../DaisyExamples/libDaisy//src/util/FixedCapStr.h **** 
 342:../DaisyExamples/libDaisy//src/util/FixedCapStr.h ****     constexpr bool operator<(const CharType* other) const
 343:../DaisyExamples/libDaisy//src/util/FixedCapStr.h ****     {
 344:../DaisyExamples/libDaisy//src/util/FixedCapStr.h ****         auto ptr = buffer_;
 345:../DaisyExamples/libDaisy//src/util/FixedCapStr.h ****         while(*ptr && *other && (*ptr == *other))
 346:../DaisyExamples/libDaisy//src/util/FixedCapStr.h ****         {
 347:../DaisyExamples/libDaisy//src/util/FixedCapStr.h ****             ptr++;
 348:../DaisyExamples/libDaisy//src/util/FixedCapStr.h ****             other++;
ARM GAS  C:\Users\matth\AppData\Local\Temp\ccy9EQ3E.s 			page 40


 349:../DaisyExamples/libDaisy//src/util/FixedCapStr.h ****         }
 350:../DaisyExamples/libDaisy//src/util/FixedCapStr.h ****         return *ptr < *other;
 351:../DaisyExamples/libDaisy//src/util/FixedCapStr.h ****     }
 352:../DaisyExamples/libDaisy//src/util/FixedCapStr.h **** 
 353:../DaisyExamples/libDaisy//src/util/FixedCapStr.h ****     constexpr bool operator<=(const CharType* other) const
 354:../DaisyExamples/libDaisy//src/util/FixedCapStr.h ****     {
 355:../DaisyExamples/libDaisy//src/util/FixedCapStr.h ****         return (*this == other) || (*this < other);
 356:../DaisyExamples/libDaisy//src/util/FixedCapStr.h ****     }
 357:../DaisyExamples/libDaisy//src/util/FixedCapStr.h **** 
 358:../DaisyExamples/libDaisy//src/util/FixedCapStr.h ****     constexpr bool operator>(const CharType* other) const
 359:../DaisyExamples/libDaisy//src/util/FixedCapStr.h ****     {
 360:../DaisyExamples/libDaisy//src/util/FixedCapStr.h ****         auto ptr = buffer_;
 361:../DaisyExamples/libDaisy//src/util/FixedCapStr.h ****         while(*ptr && *other && (*ptr == *other))
 362:../DaisyExamples/libDaisy//src/util/FixedCapStr.h ****         {
 363:../DaisyExamples/libDaisy//src/util/FixedCapStr.h ****             ptr++;
 364:../DaisyExamples/libDaisy//src/util/FixedCapStr.h ****             other++;
 365:../DaisyExamples/libDaisy//src/util/FixedCapStr.h ****         }
 366:../DaisyExamples/libDaisy//src/util/FixedCapStr.h ****         return *ptr > *other;
 367:../DaisyExamples/libDaisy//src/util/FixedCapStr.h ****     }
 368:../DaisyExamples/libDaisy//src/util/FixedCapStr.h **** 
 369:../DaisyExamples/libDaisy//src/util/FixedCapStr.h ****     constexpr bool operator>=(const CharType* other) const
 370:../DaisyExamples/libDaisy//src/util/FixedCapStr.h ****     {
 371:../DaisyExamples/libDaisy//src/util/FixedCapStr.h ****         return (*this == other) || (*this > other);
 372:../DaisyExamples/libDaisy//src/util/FixedCapStr.h ****     }
 373:../DaisyExamples/libDaisy//src/util/FixedCapStr.h **** 
 374:../DaisyExamples/libDaisy//src/util/FixedCapStr.h ****     constexpr void Swap(FixedCapStrBase& rhs) noexcept
 375:../DaisyExamples/libDaisy//src/util/FixedCapStr.h ****     {
 376:../DaisyExamples/libDaisy//src/util/FixedCapStr.h ****         auto tmp  = size_;
 377:../DaisyExamples/libDaisy//src/util/FixedCapStr.h ****         size_     = rhs.size_;
 378:../DaisyExamples/libDaisy//src/util/FixedCapStr.h ****         rhs.size_ = tmp;
 379:../DaisyExamples/libDaisy//src/util/FixedCapStr.h **** 
 380:../DaisyExamples/libDaisy//src/util/FixedCapStr.h ****         Swap_(buffer_, rhs.buffer_, std::max(size_, rhs.size_));
 381:../DaisyExamples/libDaisy//src/util/FixedCapStr.h ****     }
 382:../DaisyExamples/libDaisy//src/util/FixedCapStr.h **** 
 383:../DaisyExamples/libDaisy//src/util/FixedCapStr.h ****   protected:
 384:../DaisyExamples/libDaisy//src/util/FixedCapStr.h ****     static constexpr std::size_t strlen(const CharType* string)
 385:../DaisyExamples/libDaisy//src/util/FixedCapStr.h ****     {
 386:../DaisyExamples/libDaisy//src/util/FixedCapStr.h ****         std::size_t result = 0;
 387:../DaisyExamples/libDaisy//src/util/FixedCapStr.h ****         while(*string++ != '\0')
 388:../DaisyExamples/libDaisy//src/util/FixedCapStr.h ****             result++;
 389:../DaisyExamples/libDaisy//src/util/FixedCapStr.h ****         return result;
 390:../DaisyExamples/libDaisy//src/util/FixedCapStr.h ****     }
 391:../DaisyExamples/libDaisy//src/util/FixedCapStr.h **** 
 392:../DaisyExamples/libDaisy//src/util/FixedCapStr.h ****     constexpr void Reset_(const CharType* str, std::size_t length)
 393:../DaisyExamples/libDaisy//src/util/FixedCapStr.h ****     {
 394:../DaisyExamples/libDaisy//src/util/FixedCapStr.h ****         Copy_(str, str + length, buffer_);
 395:../DaisyExamples/libDaisy//src/util/FixedCapStr.h ****         buffer_[length] = '\0';
 396:../DaisyExamples/libDaisy//src/util/FixedCapStr.h ****     }
 397:../DaisyExamples/libDaisy//src/util/FixedCapStr.h **** 
 398:../DaisyExamples/libDaisy//src/util/FixedCapStr.h ****     constexpr void
 399:../DaisyExamples/libDaisy//src/util/FixedCapStr.h ****     ResetAt_(const CharType* str, std::size_t strLen, std::size_t writePosition)
 400:../DaisyExamples/libDaisy//src/util/FixedCapStr.h ****     {
 401:../DaisyExamples/libDaisy//src/util/FixedCapStr.h ****         Copy_(str, str + strLen, buffer_ + writePosition);
 402:../DaisyExamples/libDaisy//src/util/FixedCapStr.h ****         if(writePosition + strLen > size_)
 403:../DaisyExamples/libDaisy//src/util/FixedCapStr.h ****             buffer_[writePosition + strLen] = '\0';
 404:../DaisyExamples/libDaisy//src/util/FixedCapStr.h ****     }
 405:../DaisyExamples/libDaisy//src/util/FixedCapStr.h **** 
ARM GAS  C:\Users\matth\AppData\Local\Temp\ccy9EQ3E.s 			page 41


 406:../DaisyExamples/libDaisy//src/util/FixedCapStr.h ****     constexpr void Append_(const CharType* str, std::size_t to_copy)
 407:../DaisyExamples/libDaisy//src/util/FixedCapStr.h ****     {
 408:../DaisyExamples/libDaisy//src/util/FixedCapStr.h ****         Copy_(str, str + to_copy, buffer_ + size_);
 409:../DaisyExamples/libDaisy//src/util/FixedCapStr.h ****         size_ += to_copy;
 410:../DaisyExamples/libDaisy//src/util/FixedCapStr.h ****         buffer_[size_] = '\0';
 411:../DaisyExamples/libDaisy//src/util/FixedCapStr.h ****     }
 412:../DaisyExamples/libDaisy//src/util/FixedCapStr.h **** 
 413:../DaisyExamples/libDaisy//src/util/FixedCapStr.h ****     static constexpr void
 414:../DaisyExamples/libDaisy//src/util/FixedCapStr.h ****     Copy_(const CharType* src, const CharType* srcEnd, CharType* dest)
 415:../DaisyExamples/libDaisy//src/util/FixedCapStr.h ****     {
 416:../DaisyExamples/libDaisy//src/util/FixedCapStr.h ****         while(src != srcEnd)
 417:../DaisyExamples/libDaisy//src/util/FixedCapStr.h ****         {
 418:../DaisyExamples/libDaisy//src/util/FixedCapStr.h ****             *dest = *src;
 419:../DaisyExamples/libDaisy//src/util/FixedCapStr.h ****             src++;
 420:../DaisyExamples/libDaisy//src/util/FixedCapStr.h ****             dest++;
 421:../DaisyExamples/libDaisy//src/util/FixedCapStr.h ****         }
 422:../DaisyExamples/libDaisy//src/util/FixedCapStr.h ****     }
 423:../DaisyExamples/libDaisy//src/util/FixedCapStr.h **** 
 424:../DaisyExamples/libDaisy//src/util/FixedCapStr.h ****     static constexpr void Swap_(CharType* a, CharType* b, size_t length)
 425:../DaisyExamples/libDaisy//src/util/FixedCapStr.h ****     {
 426:../DaisyExamples/libDaisy//src/util/FixedCapStr.h ****         for(size_t i = 0; i < length; i++)
 427:../DaisyExamples/libDaisy//src/util/FixedCapStr.h ****         {
 428:../DaisyExamples/libDaisy//src/util/FixedCapStr.h ****             CharType tmp = *a;
 429:../DaisyExamples/libDaisy//src/util/FixedCapStr.h ****             *a           = *b;
 430:../DaisyExamples/libDaisy//src/util/FixedCapStr.h ****             *b           = tmp;
 431:../DaisyExamples/libDaisy//src/util/FixedCapStr.h ****             a++;
 432:../DaisyExamples/libDaisy//src/util/FixedCapStr.h ****             b++;
 433:../DaisyExamples/libDaisy//src/util/FixedCapStr.h ****         }
 434:../DaisyExamples/libDaisy//src/util/FixedCapStr.h ****     }
 435:../DaisyExamples/libDaisy//src/util/FixedCapStr.h **** 
 436:../DaisyExamples/libDaisy//src/util/FixedCapStr.h ****     // TODO: add wstring version
 437:../DaisyExamples/libDaisy//src/util/FixedCapStr.h ****     static constexpr char ToUpper_(char c) noexcept
 438:../DaisyExamples/libDaisy//src/util/FixedCapStr.h ****     {
 439:../DaisyExamples/libDaisy//src/util/FixedCapStr.h ****         switch(c)
 440:../DaisyExamples/libDaisy//src/util/FixedCapStr.h ****         {
 441:../DaisyExamples/libDaisy//src/util/FixedCapStr.h ****             default: return c;
 442:../DaisyExamples/libDaisy//src/util/FixedCapStr.h ****             case 'a': return 'A';
 443:../DaisyExamples/libDaisy//src/util/FixedCapStr.h ****             case 'b': return 'B';
 444:../DaisyExamples/libDaisy//src/util/FixedCapStr.h ****             case 'c': return 'C';
 445:../DaisyExamples/libDaisy//src/util/FixedCapStr.h ****             case 'd': return 'D';
 446:../DaisyExamples/libDaisy//src/util/FixedCapStr.h ****             case 'e': return 'E';
 447:../DaisyExamples/libDaisy//src/util/FixedCapStr.h ****             case 'f': return 'F';
 448:../DaisyExamples/libDaisy//src/util/FixedCapStr.h ****             case 'g': return 'G';
 449:../DaisyExamples/libDaisy//src/util/FixedCapStr.h ****             case 'h': return 'H';
 450:../DaisyExamples/libDaisy//src/util/FixedCapStr.h ****             case 'i': return 'I';
 451:../DaisyExamples/libDaisy//src/util/FixedCapStr.h ****             case 'j': return 'J';
 452:../DaisyExamples/libDaisy//src/util/FixedCapStr.h ****             case 'k': return 'K';
 453:../DaisyExamples/libDaisy//src/util/FixedCapStr.h ****             case 'l': return 'L';
 454:../DaisyExamples/libDaisy//src/util/FixedCapStr.h ****             case 'm': return 'M';
 455:../DaisyExamples/libDaisy//src/util/FixedCapStr.h ****             case 'n': return 'N';
 456:../DaisyExamples/libDaisy//src/util/FixedCapStr.h ****             case 'o': return 'O';
 457:../DaisyExamples/libDaisy//src/util/FixedCapStr.h ****             case 'p': return 'P';
 458:../DaisyExamples/libDaisy//src/util/FixedCapStr.h ****             case 'q': return 'Q';
 459:../DaisyExamples/libDaisy//src/util/FixedCapStr.h ****             case 'r': return 'R';
 460:../DaisyExamples/libDaisy//src/util/FixedCapStr.h ****             case 's': return 'S';
 461:../DaisyExamples/libDaisy//src/util/FixedCapStr.h ****             case 't': return 'T';
 462:../DaisyExamples/libDaisy//src/util/FixedCapStr.h ****             case 'u': return 'U';
ARM GAS  C:\Users\matth\AppData\Local\Temp\ccy9EQ3E.s 			page 42


 463:../DaisyExamples/libDaisy//src/util/FixedCapStr.h ****             case 'v': return 'V';
 464:../DaisyExamples/libDaisy//src/util/FixedCapStr.h ****             case 'w': return 'W';
 465:../DaisyExamples/libDaisy//src/util/FixedCapStr.h ****             case 'x': return 'X';
 466:../DaisyExamples/libDaisy//src/util/FixedCapStr.h ****             case 'y': return 'Y';
 467:../DaisyExamples/libDaisy//src/util/FixedCapStr.h ****             case 'z': return 'Z';
 468:../DaisyExamples/libDaisy//src/util/FixedCapStr.h ****         }
 469:../DaisyExamples/libDaisy//src/util/FixedCapStr.h ****     }
 470:../DaisyExamples/libDaisy//src/util/FixedCapStr.h **** 
 471:../DaisyExamples/libDaisy//src/util/FixedCapStr.h ****     std::size_t clamp(std::size_t val, std::size_t min, std::size_t max)
 472:../DaisyExamples/libDaisy//src/util/FixedCapStr.h ****     {
 473:../DaisyExamples/libDaisy//src/util/FixedCapStr.h ****         return (val < min) ? min : ((val > max) ? max : val);
 474:../DaisyExamples/libDaisy//src/util/FixedCapStr.h ****     }
 475:../DaisyExamples/libDaisy//src/util/FixedCapStr.h **** 
 476:../DaisyExamples/libDaisy//src/util/FixedCapStr.h ****     std::size_t  size_{0};
 477:../DaisyExamples/libDaisy//src/util/FixedCapStr.h ****     const size_t capacity_;
 478:../DaisyExamples/libDaisy//src/util/FixedCapStr.h ****     CharType*    buffer_;
 479:../DaisyExamples/libDaisy//src/util/FixedCapStr.h **** };
 480:../DaisyExamples/libDaisy//src/util/FixedCapStr.h **** 
 481:../DaisyExamples/libDaisy//src/util/FixedCapStr.h **** /** @brief A safe and convenient statically allocated string with constexpr powers
 482:../DaisyExamples/libDaisy//src/util/FixedCapStr.h ****  *  @author jelliesen
 483:../DaisyExamples/libDaisy//src/util/FixedCapStr.h ****  *  @addtogroup utility
 484:../DaisyExamples/libDaisy//src/util/FixedCapStr.h ****  * 
 485:../DaisyExamples/libDaisy//src/util/FixedCapStr.h ****  * This string class is statically allocated. All of its functions can be evaluated at compile time
 486:../DaisyExamples/libDaisy//src/util/FixedCapStr.h ****  * through the power of constexpr.
 487:../DaisyExamples/libDaisy//src/util/FixedCapStr.h ****  */
 488:../DaisyExamples/libDaisy//src/util/FixedCapStr.h **** template <std::size_t capacity, class CharType = char>
 489:../DaisyExamples/libDaisy//src/util/FixedCapStr.h **** class FixedCapStr : public FixedCapStrBase<CharType>
 490:../DaisyExamples/libDaisy//src/util/FixedCapStr.h **** {
 491:../DaisyExamples/libDaisy//src/util/FixedCapStr.h ****   public:
 492:../DaisyExamples/libDaisy//src/util/FixedCapStr.h ****     constexpr FixedCapStr() noexcept
 493:../DaisyExamples/libDaisy//src/util/FixedCapStr.h ****     : FixedCapStrBase<CharType>(buffer_, capacity)
 494:../DaisyExamples/libDaisy//src/util/FixedCapStr.h ****     {
 495:../DaisyExamples/libDaisy//src/util/FixedCapStr.h ****     }
 496:../DaisyExamples/libDaisy//src/util/FixedCapStr.h **** 
 497:../DaisyExamples/libDaisy//src/util/FixedCapStr.h ****     constexpr FixedCapStr(const FixedCapStr& str) noexcept
 498:../DaisyExamples/libDaisy//src/util/FixedCapStr.h ****     : FixedCapStrBase<CharType>(buffer_, capacity)
 499:../DaisyExamples/libDaisy//src/util/FixedCapStr.h ****     {
 500:../DaisyExamples/libDaisy//src/util/FixedCapStr.h ****         this->size_ = std::min(str.Size(), capacity);
 501:../DaisyExamples/libDaisy//src/util/FixedCapStr.h ****         this->Copy_(str.Data(), str.Data() + this->size_, buffer_);
 502:../DaisyExamples/libDaisy//src/util/FixedCapStr.h ****     }
 503:../DaisyExamples/libDaisy//src/util/FixedCapStr.h **** 
 504:../DaisyExamples/libDaisy//src/util/FixedCapStr.h ****     template <size_t otherSize>
 505:../DaisyExamples/libDaisy//src/util/FixedCapStr.h ****     constexpr FixedCapStr(const FixedCapStr<otherSize>& str) noexcept
 506:../DaisyExamples/libDaisy//src/util/FixedCapStr.h ****     : FixedCapStrBase<CharType>(buffer_, capacity)
 507:../DaisyExamples/libDaisy//src/util/FixedCapStr.h ****     {
 508:../DaisyExamples/libDaisy//src/util/FixedCapStr.h ****         this->size_ = std::min(str.Size(), capacity);
 509:../DaisyExamples/libDaisy//src/util/FixedCapStr.h ****         this->Copy_(str.Data(), str.Data() + this->size_, buffer_);
 510:../DaisyExamples/libDaisy//src/util/FixedCapStr.h ****     }
 511:../DaisyExamples/libDaisy//src/util/FixedCapStr.h **** 
 512:../DaisyExamples/libDaisy//src/util/FixedCapStr.h ****     constexpr FixedCapStr(const CharType* str) noexcept
 513:../DaisyExamples/libDaisy//src/util/FixedCapStr.h ****     : FixedCapStrBase<CharType>(buffer_, capacity)
 745              		.loc 11 513 50 view .LVU234
 746 0230 0022     		movs	r2, #0
 747              	.LBE461:
 748              	.LBE460:
 749              	.LBE459:
 750              	.LBB477:
ARM GAS  C:\Users\matth\AppData\Local\Temp\ccy9EQ3E.s 			page 43


 751              	.LBB478:
 752              	.LBB479:
 142:../DaisyExamples/libDaisy//src/util/FixedCapStr.h ****         {
 753              		.loc 11 142 9 view .LVU235
 754 0232 B5EE408A 		vcmp.f32	s16, #0
 755              	.LBE479:
 756              	.LBE478:
 757              	.LBE477:
 758              	.LBB597:
 759              	.LBB474:
 760              	.LBB471:
 761              	.LBB462:
 762              	.LBB463:
 763              	.LBB464:
  17:../DaisyExamples/libDaisy//src/util/FixedCapStr.h ****     {
 764              		.loc 11 17 42 view .LVU236
 765 0236 1020     		movs	r0, #16
 766              	.LBE464:
 767              	.LBE463:
 768              	.LBE462:
 769              		.loc 11 513 50 view .LVU237
 770 0238 2A74     		strb	r2, [r5, #16]
 771              	.LVL54:
 772              	.LBB467:
 773              	.LBI467:
 384:../DaisyExamples/libDaisy//src/util/FixedCapStr.h ****     {
 774              		.loc 11 384 34 is_stmt 1 view .LVU238
 384:../DaisyExamples/libDaisy//src/util/FixedCapStr.h ****     {
 775              		.loc 11 384 34 is_stmt 0 view .LVU239
 776              	.LBE467:
 777              	.LBE471:
 778              	.LBE474:
 779              	.LBE597:
 780              	.LBE441:
 387:../DaisyExamples/libDaisy//src/util/FixedCapStr.h ****             result++;
 781              		.loc 11 387 25 is_stmt 1 view .LVU240
 782              	.LBB775:
 783              	.LBB598:
 784              	.LBB475:
 785              	.LBB472:
 786              	.LBB468:
 787              	.LBI468:
 788              		.file 12 "c:\\users\\matth\\documents\\daisytoolchain-0.3.3\\daisytoolchain-0.3.3\\windows\\arm-no
   1:c:\users\matth\documents\daisytoolchain-0.3.3\daisytoolchain-0.3.3\windows\arm-none-eabi\include\c++\10.2.1\bits\stl_algobase.h **** // Core algorithmic facilities -*- C++ -*-
   2:c:\users\matth\documents\daisytoolchain-0.3.3\daisytoolchain-0.3.3\windows\arm-none-eabi\include\c++\10.2.1\bits\stl_algobase.h **** 
   3:c:\users\matth\documents\daisytoolchain-0.3.3\daisytoolchain-0.3.3\windows\arm-none-eabi\include\c++\10.2.1\bits\stl_algobase.h **** // Copyright (C) 2001-2020 Free Software Foundation, Inc.
   4:c:\users\matth\documents\daisytoolchain-0.3.3\daisytoolchain-0.3.3\windows\arm-none-eabi\include\c++\10.2.1\bits\stl_algobase.h **** //
   5:c:\users\matth\documents\daisytoolchain-0.3.3\daisytoolchain-0.3.3\windows\arm-none-eabi\include\c++\10.2.1\bits\stl_algobase.h **** // This file is part of the GNU ISO C++ Library.  This library is free
   6:c:\users\matth\documents\daisytoolchain-0.3.3\daisytoolchain-0.3.3\windows\arm-none-eabi\include\c++\10.2.1\bits\stl_algobase.h **** // software; you can redistribute it and/or modify it under the
   7:c:\users\matth\documents\daisytoolchain-0.3.3\daisytoolchain-0.3.3\windows\arm-none-eabi\include\c++\10.2.1\bits\stl_algobase.h **** // terms of the GNU General Public License as published by the
   8:c:\users\matth\documents\daisytoolchain-0.3.3\daisytoolchain-0.3.3\windows\arm-none-eabi\include\c++\10.2.1\bits\stl_algobase.h **** // Free Software Foundation; either version 3, or (at your option)
   9:c:\users\matth\documents\daisytoolchain-0.3.3\daisytoolchain-0.3.3\windows\arm-none-eabi\include\c++\10.2.1\bits\stl_algobase.h **** // any later version.
  10:c:\users\matth\documents\daisytoolchain-0.3.3\daisytoolchain-0.3.3\windows\arm-none-eabi\include\c++\10.2.1\bits\stl_algobase.h **** 
  11:c:\users\matth\documents\daisytoolchain-0.3.3\daisytoolchain-0.3.3\windows\arm-none-eabi\include\c++\10.2.1\bits\stl_algobase.h **** // This library is distributed in the hope that it will be useful,
  12:c:\users\matth\documents\daisytoolchain-0.3.3\daisytoolchain-0.3.3\windows\arm-none-eabi\include\c++\10.2.1\bits\stl_algobase.h **** // but WITHOUT ANY WARRANTY; without even the implied warranty of
  13:c:\users\matth\documents\daisytoolchain-0.3.3\daisytoolchain-0.3.3\windows\arm-none-eabi\include\c++\10.2.1\bits\stl_algobase.h **** // MERCHANTABILITY or FITNESS FOR A PARTICULAR PURPOSE.  See the
  14:c:\users\matth\documents\daisytoolchain-0.3.3\daisytoolchain-0.3.3\windows\arm-none-eabi\include\c++\10.2.1\bits\stl_algobase.h **** // GNU General Public License for more details.
ARM GAS  C:\Users\matth\AppData\Local\Temp\ccy9EQ3E.s 			page 44


  15:c:\users\matth\documents\daisytoolchain-0.3.3\daisytoolchain-0.3.3\windows\arm-none-eabi\include\c++\10.2.1\bits\stl_algobase.h **** 
  16:c:\users\matth\documents\daisytoolchain-0.3.3\daisytoolchain-0.3.3\windows\arm-none-eabi\include\c++\10.2.1\bits\stl_algobase.h **** // Under Section 7 of GPL version 3, you are granted additional
  17:c:\users\matth\documents\daisytoolchain-0.3.3\daisytoolchain-0.3.3\windows\arm-none-eabi\include\c++\10.2.1\bits\stl_algobase.h **** // permissions described in the GCC Runtime Library Exception, version
  18:c:\users\matth\documents\daisytoolchain-0.3.3\daisytoolchain-0.3.3\windows\arm-none-eabi\include\c++\10.2.1\bits\stl_algobase.h **** // 3.1, as published by the Free Software Foundation.
  19:c:\users\matth\documents\daisytoolchain-0.3.3\daisytoolchain-0.3.3\windows\arm-none-eabi\include\c++\10.2.1\bits\stl_algobase.h **** 
  20:c:\users\matth\documents\daisytoolchain-0.3.3\daisytoolchain-0.3.3\windows\arm-none-eabi\include\c++\10.2.1\bits\stl_algobase.h **** // You should have received a copy of the GNU General Public License and
  21:c:\users\matth\documents\daisytoolchain-0.3.3\daisytoolchain-0.3.3\windows\arm-none-eabi\include\c++\10.2.1\bits\stl_algobase.h **** // a copy of the GCC Runtime Library Exception along with this program;
  22:c:\users\matth\documents\daisytoolchain-0.3.3\daisytoolchain-0.3.3\windows\arm-none-eabi\include\c++\10.2.1\bits\stl_algobase.h **** // see the files COPYING3 and COPYING.RUNTIME respectively.  If not, see
  23:c:\users\matth\documents\daisytoolchain-0.3.3\daisytoolchain-0.3.3\windows\arm-none-eabi\include\c++\10.2.1\bits\stl_algobase.h **** // <http://www.gnu.org/licenses/>.
  24:c:\users\matth\documents\daisytoolchain-0.3.3\daisytoolchain-0.3.3\windows\arm-none-eabi\include\c++\10.2.1\bits\stl_algobase.h **** 
  25:c:\users\matth\documents\daisytoolchain-0.3.3\daisytoolchain-0.3.3\windows\arm-none-eabi\include\c++\10.2.1\bits\stl_algobase.h **** /*
  26:c:\users\matth\documents\daisytoolchain-0.3.3\daisytoolchain-0.3.3\windows\arm-none-eabi\include\c++\10.2.1\bits\stl_algobase.h ****  *
  27:c:\users\matth\documents\daisytoolchain-0.3.3\daisytoolchain-0.3.3\windows\arm-none-eabi\include\c++\10.2.1\bits\stl_algobase.h ****  * Copyright (c) 1994
  28:c:\users\matth\documents\daisytoolchain-0.3.3\daisytoolchain-0.3.3\windows\arm-none-eabi\include\c++\10.2.1\bits\stl_algobase.h ****  * Hewlett-Packard Company
  29:c:\users\matth\documents\daisytoolchain-0.3.3\daisytoolchain-0.3.3\windows\arm-none-eabi\include\c++\10.2.1\bits\stl_algobase.h ****  *
  30:c:\users\matth\documents\daisytoolchain-0.3.3\daisytoolchain-0.3.3\windows\arm-none-eabi\include\c++\10.2.1\bits\stl_algobase.h ****  * Permission to use, copy, modify, distribute and sell this software
  31:c:\users\matth\documents\daisytoolchain-0.3.3\daisytoolchain-0.3.3\windows\arm-none-eabi\include\c++\10.2.1\bits\stl_algobase.h ****  * and its documentation for any purpose is hereby granted without fee,
  32:c:\users\matth\documents\daisytoolchain-0.3.3\daisytoolchain-0.3.3\windows\arm-none-eabi\include\c++\10.2.1\bits\stl_algobase.h ****  * provided that the above copyright notice appear in all copies and
  33:c:\users\matth\documents\daisytoolchain-0.3.3\daisytoolchain-0.3.3\windows\arm-none-eabi\include\c++\10.2.1\bits\stl_algobase.h ****  * that both that copyright notice and this permission notice appear
  34:c:\users\matth\documents\daisytoolchain-0.3.3\daisytoolchain-0.3.3\windows\arm-none-eabi\include\c++\10.2.1\bits\stl_algobase.h ****  * in supporting documentation.  Hewlett-Packard Company makes no
  35:c:\users\matth\documents\daisytoolchain-0.3.3\daisytoolchain-0.3.3\windows\arm-none-eabi\include\c++\10.2.1\bits\stl_algobase.h ****  * representations about the suitability of this software for any
  36:c:\users\matth\documents\daisytoolchain-0.3.3\daisytoolchain-0.3.3\windows\arm-none-eabi\include\c++\10.2.1\bits\stl_algobase.h ****  * purpose.  It is provided "as is" without express or implied warranty.
  37:c:\users\matth\documents\daisytoolchain-0.3.3\daisytoolchain-0.3.3\windows\arm-none-eabi\include\c++\10.2.1\bits\stl_algobase.h ****  *
  38:c:\users\matth\documents\daisytoolchain-0.3.3\daisytoolchain-0.3.3\windows\arm-none-eabi\include\c++\10.2.1\bits\stl_algobase.h ****  *
  39:c:\users\matth\documents\daisytoolchain-0.3.3\daisytoolchain-0.3.3\windows\arm-none-eabi\include\c++\10.2.1\bits\stl_algobase.h ****  * Copyright (c) 1996-1998
  40:c:\users\matth\documents\daisytoolchain-0.3.3\daisytoolchain-0.3.3\windows\arm-none-eabi\include\c++\10.2.1\bits\stl_algobase.h ****  * Silicon Graphics Computer Systems, Inc.
  41:c:\users\matth\documents\daisytoolchain-0.3.3\daisytoolchain-0.3.3\windows\arm-none-eabi\include\c++\10.2.1\bits\stl_algobase.h ****  *
  42:c:\users\matth\documents\daisytoolchain-0.3.3\daisytoolchain-0.3.3\windows\arm-none-eabi\include\c++\10.2.1\bits\stl_algobase.h ****  * Permission to use, copy, modify, distribute and sell this software
  43:c:\users\matth\documents\daisytoolchain-0.3.3\daisytoolchain-0.3.3\windows\arm-none-eabi\include\c++\10.2.1\bits\stl_algobase.h ****  * and its documentation for any purpose is hereby granted without fee,
  44:c:\users\matth\documents\daisytoolchain-0.3.3\daisytoolchain-0.3.3\windows\arm-none-eabi\include\c++\10.2.1\bits\stl_algobase.h ****  * provided that the above copyright notice appear in all copies and
  45:c:\users\matth\documents\daisytoolchain-0.3.3\daisytoolchain-0.3.3\windows\arm-none-eabi\include\c++\10.2.1\bits\stl_algobase.h ****  * that both that copyright notice and this permission notice appear
  46:c:\users\matth\documents\daisytoolchain-0.3.3\daisytoolchain-0.3.3\windows\arm-none-eabi\include\c++\10.2.1\bits\stl_algobase.h ****  * in supporting documentation.  Silicon Graphics makes no
  47:c:\users\matth\documents\daisytoolchain-0.3.3\daisytoolchain-0.3.3\windows\arm-none-eabi\include\c++\10.2.1\bits\stl_algobase.h ****  * representations about the suitability of this software for any
  48:c:\users\matth\documents\daisytoolchain-0.3.3\daisytoolchain-0.3.3\windows\arm-none-eabi\include\c++\10.2.1\bits\stl_algobase.h ****  * purpose.  It is provided "as is" without express or implied warranty.
  49:c:\users\matth\documents\daisytoolchain-0.3.3\daisytoolchain-0.3.3\windows\arm-none-eabi\include\c++\10.2.1\bits\stl_algobase.h ****  */
  50:c:\users\matth\documents\daisytoolchain-0.3.3\daisytoolchain-0.3.3\windows\arm-none-eabi\include\c++\10.2.1\bits\stl_algobase.h **** 
  51:c:\users\matth\documents\daisytoolchain-0.3.3\daisytoolchain-0.3.3\windows\arm-none-eabi\include\c++\10.2.1\bits\stl_algobase.h **** /** @file bits/stl_algobase.h
  52:c:\users\matth\documents\daisytoolchain-0.3.3\daisytoolchain-0.3.3\windows\arm-none-eabi\include\c++\10.2.1\bits\stl_algobase.h ****  *  This is an internal header file, included by other library headers.
  53:c:\users\matth\documents\daisytoolchain-0.3.3\daisytoolchain-0.3.3\windows\arm-none-eabi\include\c++\10.2.1\bits\stl_algobase.h ****  *  Do not attempt to use it directly. @headername{algorithm}
  54:c:\users\matth\documents\daisytoolchain-0.3.3\daisytoolchain-0.3.3\windows\arm-none-eabi\include\c++\10.2.1\bits\stl_algobase.h ****  */
  55:c:\users\matth\documents\daisytoolchain-0.3.3\daisytoolchain-0.3.3\windows\arm-none-eabi\include\c++\10.2.1\bits\stl_algobase.h **** 
  56:c:\users\matth\documents\daisytoolchain-0.3.3\daisytoolchain-0.3.3\windows\arm-none-eabi\include\c++\10.2.1\bits\stl_algobase.h **** #ifndef _STL_ALGOBASE_H
  57:c:\users\matth\documents\daisytoolchain-0.3.3\daisytoolchain-0.3.3\windows\arm-none-eabi\include\c++\10.2.1\bits\stl_algobase.h **** #define _STL_ALGOBASE_H 1
  58:c:\users\matth\documents\daisytoolchain-0.3.3\daisytoolchain-0.3.3\windows\arm-none-eabi\include\c++\10.2.1\bits\stl_algobase.h **** 
  59:c:\users\matth\documents\daisytoolchain-0.3.3\daisytoolchain-0.3.3\windows\arm-none-eabi\include\c++\10.2.1\bits\stl_algobase.h **** #include <bits/c++config.h>
  60:c:\users\matth\documents\daisytoolchain-0.3.3\daisytoolchain-0.3.3\windows\arm-none-eabi\include\c++\10.2.1\bits\stl_algobase.h **** #include <bits/functexcept.h>
  61:c:\users\matth\documents\daisytoolchain-0.3.3\daisytoolchain-0.3.3\windows\arm-none-eabi\include\c++\10.2.1\bits\stl_algobase.h **** #include <bits/cpp_type_traits.h>
  62:c:\users\matth\documents\daisytoolchain-0.3.3\daisytoolchain-0.3.3\windows\arm-none-eabi\include\c++\10.2.1\bits\stl_algobase.h **** #include <ext/type_traits.h>
  63:c:\users\matth\documents\daisytoolchain-0.3.3\daisytoolchain-0.3.3\windows\arm-none-eabi\include\c++\10.2.1\bits\stl_algobase.h **** #include <ext/numeric_traits.h>
  64:c:\users\matth\documents\daisytoolchain-0.3.3\daisytoolchain-0.3.3\windows\arm-none-eabi\include\c++\10.2.1\bits\stl_algobase.h **** #include <bits/stl_pair.h>
  65:c:\users\matth\documents\daisytoolchain-0.3.3\daisytoolchain-0.3.3\windows\arm-none-eabi\include\c++\10.2.1\bits\stl_algobase.h **** #include <bits/stl_iterator_base_types.h>
  66:c:\users\matth\documents\daisytoolchain-0.3.3\daisytoolchain-0.3.3\windows\arm-none-eabi\include\c++\10.2.1\bits\stl_algobase.h **** #include <bits/stl_iterator_base_funcs.h>
  67:c:\users\matth\documents\daisytoolchain-0.3.3\daisytoolchain-0.3.3\windows\arm-none-eabi\include\c++\10.2.1\bits\stl_algobase.h **** #include <bits/stl_iterator.h>
  68:c:\users\matth\documents\daisytoolchain-0.3.3\daisytoolchain-0.3.3\windows\arm-none-eabi\include\c++\10.2.1\bits\stl_algobase.h **** #include <bits/concept_check.h>
  69:c:\users\matth\documents\daisytoolchain-0.3.3\daisytoolchain-0.3.3\windows\arm-none-eabi\include\c++\10.2.1\bits\stl_algobase.h **** #include <debug/debug.h>
  70:c:\users\matth\documents\daisytoolchain-0.3.3\daisytoolchain-0.3.3\windows\arm-none-eabi\include\c++\10.2.1\bits\stl_algobase.h **** #include <bits/move.h> // For std::swap
  71:c:\users\matth\documents\daisytoolchain-0.3.3\daisytoolchain-0.3.3\windows\arm-none-eabi\include\c++\10.2.1\bits\stl_algobase.h **** #include <bits/predefined_ops.h>
ARM GAS  C:\Users\matth\AppData\Local\Temp\ccy9EQ3E.s 			page 45


  72:c:\users\matth\documents\daisytoolchain-0.3.3\daisytoolchain-0.3.3\windows\arm-none-eabi\include\c++\10.2.1\bits\stl_algobase.h **** #if __cplusplus >= 201103L
  73:c:\users\matth\documents\daisytoolchain-0.3.3\daisytoolchain-0.3.3\windows\arm-none-eabi\include\c++\10.2.1\bits\stl_algobase.h **** # include <type_traits>
  74:c:\users\matth\documents\daisytoolchain-0.3.3\daisytoolchain-0.3.3\windows\arm-none-eabi\include\c++\10.2.1\bits\stl_algobase.h **** #endif
  75:c:\users\matth\documents\daisytoolchain-0.3.3\daisytoolchain-0.3.3\windows\arm-none-eabi\include\c++\10.2.1\bits\stl_algobase.h **** #if __cplusplus > 201703L
  76:c:\users\matth\documents\daisytoolchain-0.3.3\daisytoolchain-0.3.3\windows\arm-none-eabi\include\c++\10.2.1\bits\stl_algobase.h **** # include <compare>
  77:c:\users\matth\documents\daisytoolchain-0.3.3\daisytoolchain-0.3.3\windows\arm-none-eabi\include\c++\10.2.1\bits\stl_algobase.h **** #endif
  78:c:\users\matth\documents\daisytoolchain-0.3.3\daisytoolchain-0.3.3\windows\arm-none-eabi\include\c++\10.2.1\bits\stl_algobase.h **** 
  79:c:\users\matth\documents\daisytoolchain-0.3.3\daisytoolchain-0.3.3\windows\arm-none-eabi\include\c++\10.2.1\bits\stl_algobase.h **** namespace std _GLIBCXX_VISIBILITY(default)
  80:c:\users\matth\documents\daisytoolchain-0.3.3\daisytoolchain-0.3.3\windows\arm-none-eabi\include\c++\10.2.1\bits\stl_algobase.h **** {
  81:c:\users\matth\documents\daisytoolchain-0.3.3\daisytoolchain-0.3.3\windows\arm-none-eabi\include\c++\10.2.1\bits\stl_algobase.h **** _GLIBCXX_BEGIN_NAMESPACE_VERSION
  82:c:\users\matth\documents\daisytoolchain-0.3.3\daisytoolchain-0.3.3\windows\arm-none-eabi\include\c++\10.2.1\bits\stl_algobase.h **** 
  83:c:\users\matth\documents\daisytoolchain-0.3.3\daisytoolchain-0.3.3\windows\arm-none-eabi\include\c++\10.2.1\bits\stl_algobase.h ****   /*
  84:c:\users\matth\documents\daisytoolchain-0.3.3\daisytoolchain-0.3.3\windows\arm-none-eabi\include\c++\10.2.1\bits\stl_algobase.h ****    * A constexpr wrapper for __builtin_memcmp.
  85:c:\users\matth\documents\daisytoolchain-0.3.3\daisytoolchain-0.3.3\windows\arm-none-eabi\include\c++\10.2.1\bits\stl_algobase.h ****    * @param __num The number of elements of type _Tp (not bytes).
  86:c:\users\matth\documents\daisytoolchain-0.3.3\daisytoolchain-0.3.3\windows\arm-none-eabi\include\c++\10.2.1\bits\stl_algobase.h ****    */
  87:c:\users\matth\documents\daisytoolchain-0.3.3\daisytoolchain-0.3.3\windows\arm-none-eabi\include\c++\10.2.1\bits\stl_algobase.h ****   template<typename _Tp, typename _Up>
  88:c:\users\matth\documents\daisytoolchain-0.3.3\daisytoolchain-0.3.3\windows\arm-none-eabi\include\c++\10.2.1\bits\stl_algobase.h ****     _GLIBCXX14_CONSTEXPR
  89:c:\users\matth\documents\daisytoolchain-0.3.3\daisytoolchain-0.3.3\windows\arm-none-eabi\include\c++\10.2.1\bits\stl_algobase.h ****     inline int
  90:c:\users\matth\documents\daisytoolchain-0.3.3\daisytoolchain-0.3.3\windows\arm-none-eabi\include\c++\10.2.1\bits\stl_algobase.h ****     __memcmp(const _Tp* __first1, const _Up* __first2, size_t __num)
  91:c:\users\matth\documents\daisytoolchain-0.3.3\daisytoolchain-0.3.3\windows\arm-none-eabi\include\c++\10.2.1\bits\stl_algobase.h ****     {
  92:c:\users\matth\documents\daisytoolchain-0.3.3\daisytoolchain-0.3.3\windows\arm-none-eabi\include\c++\10.2.1\bits\stl_algobase.h **** #if __cplusplus >= 201103L
  93:c:\users\matth\documents\daisytoolchain-0.3.3\daisytoolchain-0.3.3\windows\arm-none-eabi\include\c++\10.2.1\bits\stl_algobase.h ****       static_assert(sizeof(_Tp) == sizeof(_Up), "can be compared with memcmp");
  94:c:\users\matth\documents\daisytoolchain-0.3.3\daisytoolchain-0.3.3\windows\arm-none-eabi\include\c++\10.2.1\bits\stl_algobase.h **** #endif
  95:c:\users\matth\documents\daisytoolchain-0.3.3\daisytoolchain-0.3.3\windows\arm-none-eabi\include\c++\10.2.1\bits\stl_algobase.h **** #ifdef __cpp_lib_is_constant_evaluated
  96:c:\users\matth\documents\daisytoolchain-0.3.3\daisytoolchain-0.3.3\windows\arm-none-eabi\include\c++\10.2.1\bits\stl_algobase.h ****       if (std::is_constant_evaluated())
  97:c:\users\matth\documents\daisytoolchain-0.3.3\daisytoolchain-0.3.3\windows\arm-none-eabi\include\c++\10.2.1\bits\stl_algobase.h **** 	{
  98:c:\users\matth\documents\daisytoolchain-0.3.3\daisytoolchain-0.3.3\windows\arm-none-eabi\include\c++\10.2.1\bits\stl_algobase.h **** 	  for(; __num > 0; ++__first1, ++__first2, --__num)
  99:c:\users\matth\documents\daisytoolchain-0.3.3\daisytoolchain-0.3.3\windows\arm-none-eabi\include\c++\10.2.1\bits\stl_algobase.h **** 	    if (*__first1 != *__first2)
 100:c:\users\matth\documents\daisytoolchain-0.3.3\daisytoolchain-0.3.3\windows\arm-none-eabi\include\c++\10.2.1\bits\stl_algobase.h **** 	      return *__first1 < *__first2 ? -1 : 1;
 101:c:\users\matth\documents\daisytoolchain-0.3.3\daisytoolchain-0.3.3\windows\arm-none-eabi\include\c++\10.2.1\bits\stl_algobase.h **** 	  return 0;
 102:c:\users\matth\documents\daisytoolchain-0.3.3\daisytoolchain-0.3.3\windows\arm-none-eabi\include\c++\10.2.1\bits\stl_algobase.h **** 	}
 103:c:\users\matth\documents\daisytoolchain-0.3.3\daisytoolchain-0.3.3\windows\arm-none-eabi\include\c++\10.2.1\bits\stl_algobase.h ****       else
 104:c:\users\matth\documents\daisytoolchain-0.3.3\daisytoolchain-0.3.3\windows\arm-none-eabi\include\c++\10.2.1\bits\stl_algobase.h **** #endif
 105:c:\users\matth\documents\daisytoolchain-0.3.3\daisytoolchain-0.3.3\windows\arm-none-eabi\include\c++\10.2.1\bits\stl_algobase.h **** 	return __builtin_memcmp(__first1, __first2, sizeof(_Tp) * __num);
 106:c:\users\matth\documents\daisytoolchain-0.3.3\daisytoolchain-0.3.3\windows\arm-none-eabi\include\c++\10.2.1\bits\stl_algobase.h ****     }
 107:c:\users\matth\documents\daisytoolchain-0.3.3\daisytoolchain-0.3.3\windows\arm-none-eabi\include\c++\10.2.1\bits\stl_algobase.h **** 
 108:c:\users\matth\documents\daisytoolchain-0.3.3\daisytoolchain-0.3.3\windows\arm-none-eabi\include\c++\10.2.1\bits\stl_algobase.h **** #if __cplusplus < 201103L
 109:c:\users\matth\documents\daisytoolchain-0.3.3\daisytoolchain-0.3.3\windows\arm-none-eabi\include\c++\10.2.1\bits\stl_algobase.h ****   // See http://gcc.gnu.org/ml/libstdc++/2004-08/msg00167.html: in a
 110:c:\users\matth\documents\daisytoolchain-0.3.3\daisytoolchain-0.3.3\windows\arm-none-eabi\include\c++\10.2.1\bits\stl_algobase.h ****   // nutshell, we are partially implementing the resolution of DR 187,
 111:c:\users\matth\documents\daisytoolchain-0.3.3\daisytoolchain-0.3.3\windows\arm-none-eabi\include\c++\10.2.1\bits\stl_algobase.h ****   // when it's safe, i.e., the value_types are equal.
 112:c:\users\matth\documents\daisytoolchain-0.3.3\daisytoolchain-0.3.3\windows\arm-none-eabi\include\c++\10.2.1\bits\stl_algobase.h ****   template<bool _BoolType>
 113:c:\users\matth\documents\daisytoolchain-0.3.3\daisytoolchain-0.3.3\windows\arm-none-eabi\include\c++\10.2.1\bits\stl_algobase.h ****     struct __iter_swap
 114:c:\users\matth\documents\daisytoolchain-0.3.3\daisytoolchain-0.3.3\windows\arm-none-eabi\include\c++\10.2.1\bits\stl_algobase.h ****     {
 115:c:\users\matth\documents\daisytoolchain-0.3.3\daisytoolchain-0.3.3\windows\arm-none-eabi\include\c++\10.2.1\bits\stl_algobase.h ****       template<typename _ForwardIterator1, typename _ForwardIterator2>
 116:c:\users\matth\documents\daisytoolchain-0.3.3\daisytoolchain-0.3.3\windows\arm-none-eabi\include\c++\10.2.1\bits\stl_algobase.h **** 	static void
 117:c:\users\matth\documents\daisytoolchain-0.3.3\daisytoolchain-0.3.3\windows\arm-none-eabi\include\c++\10.2.1\bits\stl_algobase.h **** 	iter_swap(_ForwardIterator1 __a, _ForwardIterator2 __b)
 118:c:\users\matth\documents\daisytoolchain-0.3.3\daisytoolchain-0.3.3\windows\arm-none-eabi\include\c++\10.2.1\bits\stl_algobase.h **** 	{
 119:c:\users\matth\documents\daisytoolchain-0.3.3\daisytoolchain-0.3.3\windows\arm-none-eabi\include\c++\10.2.1\bits\stl_algobase.h **** 	  typedef typename iterator_traits<_ForwardIterator1>::value_type
 120:c:\users\matth\documents\daisytoolchain-0.3.3\daisytoolchain-0.3.3\windows\arm-none-eabi\include\c++\10.2.1\bits\stl_algobase.h **** 	    _ValueType1;
 121:c:\users\matth\documents\daisytoolchain-0.3.3\daisytoolchain-0.3.3\windows\arm-none-eabi\include\c++\10.2.1\bits\stl_algobase.h **** 	  _ValueType1 __tmp = *__a;
 122:c:\users\matth\documents\daisytoolchain-0.3.3\daisytoolchain-0.3.3\windows\arm-none-eabi\include\c++\10.2.1\bits\stl_algobase.h **** 	  *__a = *__b;
 123:c:\users\matth\documents\daisytoolchain-0.3.3\daisytoolchain-0.3.3\windows\arm-none-eabi\include\c++\10.2.1\bits\stl_algobase.h **** 	  *__b = __tmp;
 124:c:\users\matth\documents\daisytoolchain-0.3.3\daisytoolchain-0.3.3\windows\arm-none-eabi\include\c++\10.2.1\bits\stl_algobase.h **** 	}
 125:c:\users\matth\documents\daisytoolchain-0.3.3\daisytoolchain-0.3.3\windows\arm-none-eabi\include\c++\10.2.1\bits\stl_algobase.h ****     };
 126:c:\users\matth\documents\daisytoolchain-0.3.3\daisytoolchain-0.3.3\windows\arm-none-eabi\include\c++\10.2.1\bits\stl_algobase.h **** 
 127:c:\users\matth\documents\daisytoolchain-0.3.3\daisytoolchain-0.3.3\windows\arm-none-eabi\include\c++\10.2.1\bits\stl_algobase.h ****   template<>
 128:c:\users\matth\documents\daisytoolchain-0.3.3\daisytoolchain-0.3.3\windows\arm-none-eabi\include\c++\10.2.1\bits\stl_algobase.h ****     struct __iter_swap<true>
ARM GAS  C:\Users\matth\AppData\Local\Temp\ccy9EQ3E.s 			page 46


 129:c:\users\matth\documents\daisytoolchain-0.3.3\daisytoolchain-0.3.3\windows\arm-none-eabi\include\c++\10.2.1\bits\stl_algobase.h ****     {
 130:c:\users\matth\documents\daisytoolchain-0.3.3\daisytoolchain-0.3.3\windows\arm-none-eabi\include\c++\10.2.1\bits\stl_algobase.h ****       template<typename _ForwardIterator1, typename _ForwardIterator2>
 131:c:\users\matth\documents\daisytoolchain-0.3.3\daisytoolchain-0.3.3\windows\arm-none-eabi\include\c++\10.2.1\bits\stl_algobase.h **** 	static void
 132:c:\users\matth\documents\daisytoolchain-0.3.3\daisytoolchain-0.3.3\windows\arm-none-eabi\include\c++\10.2.1\bits\stl_algobase.h **** 	iter_swap(_ForwardIterator1 __a, _ForwardIterator2 __b)
 133:c:\users\matth\documents\daisytoolchain-0.3.3\daisytoolchain-0.3.3\windows\arm-none-eabi\include\c++\10.2.1\bits\stl_algobase.h **** 	{
 134:c:\users\matth\documents\daisytoolchain-0.3.3\daisytoolchain-0.3.3\windows\arm-none-eabi\include\c++\10.2.1\bits\stl_algobase.h **** 	  swap(*__a, *__b);
 135:c:\users\matth\documents\daisytoolchain-0.3.3\daisytoolchain-0.3.3\windows\arm-none-eabi\include\c++\10.2.1\bits\stl_algobase.h **** 	}
 136:c:\users\matth\documents\daisytoolchain-0.3.3\daisytoolchain-0.3.3\windows\arm-none-eabi\include\c++\10.2.1\bits\stl_algobase.h ****     };
 137:c:\users\matth\documents\daisytoolchain-0.3.3\daisytoolchain-0.3.3\windows\arm-none-eabi\include\c++\10.2.1\bits\stl_algobase.h **** #endif // C++03
 138:c:\users\matth\documents\daisytoolchain-0.3.3\daisytoolchain-0.3.3\windows\arm-none-eabi\include\c++\10.2.1\bits\stl_algobase.h **** 
 139:c:\users\matth\documents\daisytoolchain-0.3.3\daisytoolchain-0.3.3\windows\arm-none-eabi\include\c++\10.2.1\bits\stl_algobase.h ****   /**
 140:c:\users\matth\documents\daisytoolchain-0.3.3\daisytoolchain-0.3.3\windows\arm-none-eabi\include\c++\10.2.1\bits\stl_algobase.h ****    *  @brief Swaps the contents of two iterators.
 141:c:\users\matth\documents\daisytoolchain-0.3.3\daisytoolchain-0.3.3\windows\arm-none-eabi\include\c++\10.2.1\bits\stl_algobase.h ****    *  @ingroup mutating_algorithms
 142:c:\users\matth\documents\daisytoolchain-0.3.3\daisytoolchain-0.3.3\windows\arm-none-eabi\include\c++\10.2.1\bits\stl_algobase.h ****    *  @param  __a  An iterator.
 143:c:\users\matth\documents\daisytoolchain-0.3.3\daisytoolchain-0.3.3\windows\arm-none-eabi\include\c++\10.2.1\bits\stl_algobase.h ****    *  @param  __b  Another iterator.
 144:c:\users\matth\documents\daisytoolchain-0.3.3\daisytoolchain-0.3.3\windows\arm-none-eabi\include\c++\10.2.1\bits\stl_algobase.h ****    *  @return   Nothing.
 145:c:\users\matth\documents\daisytoolchain-0.3.3\daisytoolchain-0.3.3\windows\arm-none-eabi\include\c++\10.2.1\bits\stl_algobase.h ****    *
 146:c:\users\matth\documents\daisytoolchain-0.3.3\daisytoolchain-0.3.3\windows\arm-none-eabi\include\c++\10.2.1\bits\stl_algobase.h ****    *  This function swaps the values pointed to by two iterators, not the
 147:c:\users\matth\documents\daisytoolchain-0.3.3\daisytoolchain-0.3.3\windows\arm-none-eabi\include\c++\10.2.1\bits\stl_algobase.h ****    *  iterators themselves.
 148:c:\users\matth\documents\daisytoolchain-0.3.3\daisytoolchain-0.3.3\windows\arm-none-eabi\include\c++\10.2.1\bits\stl_algobase.h ****   */
 149:c:\users\matth\documents\daisytoolchain-0.3.3\daisytoolchain-0.3.3\windows\arm-none-eabi\include\c++\10.2.1\bits\stl_algobase.h ****   template<typename _ForwardIterator1, typename _ForwardIterator2>
 150:c:\users\matth\documents\daisytoolchain-0.3.3\daisytoolchain-0.3.3\windows\arm-none-eabi\include\c++\10.2.1\bits\stl_algobase.h ****     _GLIBCXX20_CONSTEXPR
 151:c:\users\matth\documents\daisytoolchain-0.3.3\daisytoolchain-0.3.3\windows\arm-none-eabi\include\c++\10.2.1\bits\stl_algobase.h ****     inline void
 152:c:\users\matth\documents\daisytoolchain-0.3.3\daisytoolchain-0.3.3\windows\arm-none-eabi\include\c++\10.2.1\bits\stl_algobase.h ****     iter_swap(_ForwardIterator1 __a, _ForwardIterator2 __b)
 153:c:\users\matth\documents\daisytoolchain-0.3.3\daisytoolchain-0.3.3\windows\arm-none-eabi\include\c++\10.2.1\bits\stl_algobase.h ****     {
 154:c:\users\matth\documents\daisytoolchain-0.3.3\daisytoolchain-0.3.3\windows\arm-none-eabi\include\c++\10.2.1\bits\stl_algobase.h ****       // concept requirements
 155:c:\users\matth\documents\daisytoolchain-0.3.3\daisytoolchain-0.3.3\windows\arm-none-eabi\include\c++\10.2.1\bits\stl_algobase.h ****       __glibcxx_function_requires(_Mutable_ForwardIteratorConcept<
 156:c:\users\matth\documents\daisytoolchain-0.3.3\daisytoolchain-0.3.3\windows\arm-none-eabi\include\c++\10.2.1\bits\stl_algobase.h **** 				  _ForwardIterator1>)
 157:c:\users\matth\documents\daisytoolchain-0.3.3\daisytoolchain-0.3.3\windows\arm-none-eabi\include\c++\10.2.1\bits\stl_algobase.h ****       __glibcxx_function_requires(_Mutable_ForwardIteratorConcept<
 158:c:\users\matth\documents\daisytoolchain-0.3.3\daisytoolchain-0.3.3\windows\arm-none-eabi\include\c++\10.2.1\bits\stl_algobase.h **** 				  _ForwardIterator2>)
 159:c:\users\matth\documents\daisytoolchain-0.3.3\daisytoolchain-0.3.3\windows\arm-none-eabi\include\c++\10.2.1\bits\stl_algobase.h **** 
 160:c:\users\matth\documents\daisytoolchain-0.3.3\daisytoolchain-0.3.3\windows\arm-none-eabi\include\c++\10.2.1\bits\stl_algobase.h **** #if __cplusplus < 201103L
 161:c:\users\matth\documents\daisytoolchain-0.3.3\daisytoolchain-0.3.3\windows\arm-none-eabi\include\c++\10.2.1\bits\stl_algobase.h ****       typedef typename iterator_traits<_ForwardIterator1>::value_type
 162:c:\users\matth\documents\daisytoolchain-0.3.3\daisytoolchain-0.3.3\windows\arm-none-eabi\include\c++\10.2.1\bits\stl_algobase.h **** 	_ValueType1;
 163:c:\users\matth\documents\daisytoolchain-0.3.3\daisytoolchain-0.3.3\windows\arm-none-eabi\include\c++\10.2.1\bits\stl_algobase.h ****       typedef typename iterator_traits<_ForwardIterator2>::value_type
 164:c:\users\matth\documents\daisytoolchain-0.3.3\daisytoolchain-0.3.3\windows\arm-none-eabi\include\c++\10.2.1\bits\stl_algobase.h **** 	_ValueType2;
 165:c:\users\matth\documents\daisytoolchain-0.3.3\daisytoolchain-0.3.3\windows\arm-none-eabi\include\c++\10.2.1\bits\stl_algobase.h **** 
 166:c:\users\matth\documents\daisytoolchain-0.3.3\daisytoolchain-0.3.3\windows\arm-none-eabi\include\c++\10.2.1\bits\stl_algobase.h ****       __glibcxx_function_requires(_ConvertibleConcept<_ValueType1,
 167:c:\users\matth\documents\daisytoolchain-0.3.3\daisytoolchain-0.3.3\windows\arm-none-eabi\include\c++\10.2.1\bits\stl_algobase.h **** 				  _ValueType2>)
 168:c:\users\matth\documents\daisytoolchain-0.3.3\daisytoolchain-0.3.3\windows\arm-none-eabi\include\c++\10.2.1\bits\stl_algobase.h ****       __glibcxx_function_requires(_ConvertibleConcept<_ValueType2,
 169:c:\users\matth\documents\daisytoolchain-0.3.3\daisytoolchain-0.3.3\windows\arm-none-eabi\include\c++\10.2.1\bits\stl_algobase.h **** 				  _ValueType1>)
 170:c:\users\matth\documents\daisytoolchain-0.3.3\daisytoolchain-0.3.3\windows\arm-none-eabi\include\c++\10.2.1\bits\stl_algobase.h **** 
 171:c:\users\matth\documents\daisytoolchain-0.3.3\daisytoolchain-0.3.3\windows\arm-none-eabi\include\c++\10.2.1\bits\stl_algobase.h ****       typedef typename iterator_traits<_ForwardIterator1>::reference
 172:c:\users\matth\documents\daisytoolchain-0.3.3\daisytoolchain-0.3.3\windows\arm-none-eabi\include\c++\10.2.1\bits\stl_algobase.h **** 	_ReferenceType1;
 173:c:\users\matth\documents\daisytoolchain-0.3.3\daisytoolchain-0.3.3\windows\arm-none-eabi\include\c++\10.2.1\bits\stl_algobase.h ****       typedef typename iterator_traits<_ForwardIterator2>::reference
 174:c:\users\matth\documents\daisytoolchain-0.3.3\daisytoolchain-0.3.3\windows\arm-none-eabi\include\c++\10.2.1\bits\stl_algobase.h **** 	_ReferenceType2;
 175:c:\users\matth\documents\daisytoolchain-0.3.3\daisytoolchain-0.3.3\windows\arm-none-eabi\include\c++\10.2.1\bits\stl_algobase.h ****       std::__iter_swap<__are_same<_ValueType1, _ValueType2>::__value
 176:c:\users\matth\documents\daisytoolchain-0.3.3\daisytoolchain-0.3.3\windows\arm-none-eabi\include\c++\10.2.1\bits\stl_algobase.h **** 	&& __are_same<_ValueType1&, _ReferenceType1>::__value
 177:c:\users\matth\documents\daisytoolchain-0.3.3\daisytoolchain-0.3.3\windows\arm-none-eabi\include\c++\10.2.1\bits\stl_algobase.h **** 	&& __are_same<_ValueType2&, _ReferenceType2>::__value>::
 178:c:\users\matth\documents\daisytoolchain-0.3.3\daisytoolchain-0.3.3\windows\arm-none-eabi\include\c++\10.2.1\bits\stl_algobase.h **** 	iter_swap(__a, __b);
 179:c:\users\matth\documents\daisytoolchain-0.3.3\daisytoolchain-0.3.3\windows\arm-none-eabi\include\c++\10.2.1\bits\stl_algobase.h **** #else
 180:c:\users\matth\documents\daisytoolchain-0.3.3\daisytoolchain-0.3.3\windows\arm-none-eabi\include\c++\10.2.1\bits\stl_algobase.h ****       // _GLIBCXX_RESOLVE_LIB_DEFECTS
 181:c:\users\matth\documents\daisytoolchain-0.3.3\daisytoolchain-0.3.3\windows\arm-none-eabi\include\c++\10.2.1\bits\stl_algobase.h ****       // 187. iter_swap underspecified
 182:c:\users\matth\documents\daisytoolchain-0.3.3\daisytoolchain-0.3.3\windows\arm-none-eabi\include\c++\10.2.1\bits\stl_algobase.h ****       swap(*__a, *__b);
 183:c:\users\matth\documents\daisytoolchain-0.3.3\daisytoolchain-0.3.3\windows\arm-none-eabi\include\c++\10.2.1\bits\stl_algobase.h **** #endif
 184:c:\users\matth\documents\daisytoolchain-0.3.3\daisytoolchain-0.3.3\windows\arm-none-eabi\include\c++\10.2.1\bits\stl_algobase.h ****     }
 185:c:\users\matth\documents\daisytoolchain-0.3.3\daisytoolchain-0.3.3\windows\arm-none-eabi\include\c++\10.2.1\bits\stl_algobase.h **** 
ARM GAS  C:\Users\matth\AppData\Local\Temp\ccy9EQ3E.s 			page 47


 186:c:\users\matth\documents\daisytoolchain-0.3.3\daisytoolchain-0.3.3\windows\arm-none-eabi\include\c++\10.2.1\bits\stl_algobase.h ****   /**
 187:c:\users\matth\documents\daisytoolchain-0.3.3\daisytoolchain-0.3.3\windows\arm-none-eabi\include\c++\10.2.1\bits\stl_algobase.h ****    *  @brief Swap the elements of two sequences.
 188:c:\users\matth\documents\daisytoolchain-0.3.3\daisytoolchain-0.3.3\windows\arm-none-eabi\include\c++\10.2.1\bits\stl_algobase.h ****    *  @ingroup mutating_algorithms
 189:c:\users\matth\documents\daisytoolchain-0.3.3\daisytoolchain-0.3.3\windows\arm-none-eabi\include\c++\10.2.1\bits\stl_algobase.h ****    *  @param  __first1  A forward iterator.
 190:c:\users\matth\documents\daisytoolchain-0.3.3\daisytoolchain-0.3.3\windows\arm-none-eabi\include\c++\10.2.1\bits\stl_algobase.h ****    *  @param  __last1   A forward iterator.
 191:c:\users\matth\documents\daisytoolchain-0.3.3\daisytoolchain-0.3.3\windows\arm-none-eabi\include\c++\10.2.1\bits\stl_algobase.h ****    *  @param  __first2  A forward iterator.
 192:c:\users\matth\documents\daisytoolchain-0.3.3\daisytoolchain-0.3.3\windows\arm-none-eabi\include\c++\10.2.1\bits\stl_algobase.h ****    *  @return   An iterator equal to @p first2+(last1-first1).
 193:c:\users\matth\documents\daisytoolchain-0.3.3\daisytoolchain-0.3.3\windows\arm-none-eabi\include\c++\10.2.1\bits\stl_algobase.h ****    *
 194:c:\users\matth\documents\daisytoolchain-0.3.3\daisytoolchain-0.3.3\windows\arm-none-eabi\include\c++\10.2.1\bits\stl_algobase.h ****    *  Swaps each element in the range @p [first1,last1) with the
 195:c:\users\matth\documents\daisytoolchain-0.3.3\daisytoolchain-0.3.3\windows\arm-none-eabi\include\c++\10.2.1\bits\stl_algobase.h ****    *  corresponding element in the range @p [first2,(last1-first1)).
 196:c:\users\matth\documents\daisytoolchain-0.3.3\daisytoolchain-0.3.3\windows\arm-none-eabi\include\c++\10.2.1\bits\stl_algobase.h ****    *  The ranges must not overlap.
 197:c:\users\matth\documents\daisytoolchain-0.3.3\daisytoolchain-0.3.3\windows\arm-none-eabi\include\c++\10.2.1\bits\stl_algobase.h ****   */
 198:c:\users\matth\documents\daisytoolchain-0.3.3\daisytoolchain-0.3.3\windows\arm-none-eabi\include\c++\10.2.1\bits\stl_algobase.h ****   template<typename _ForwardIterator1, typename _ForwardIterator2>
 199:c:\users\matth\documents\daisytoolchain-0.3.3\daisytoolchain-0.3.3\windows\arm-none-eabi\include\c++\10.2.1\bits\stl_algobase.h ****     _GLIBCXX20_CONSTEXPR
 200:c:\users\matth\documents\daisytoolchain-0.3.3\daisytoolchain-0.3.3\windows\arm-none-eabi\include\c++\10.2.1\bits\stl_algobase.h ****     _ForwardIterator2
 201:c:\users\matth\documents\daisytoolchain-0.3.3\daisytoolchain-0.3.3\windows\arm-none-eabi\include\c++\10.2.1\bits\stl_algobase.h ****     swap_ranges(_ForwardIterator1 __first1, _ForwardIterator1 __last1,
 202:c:\users\matth\documents\daisytoolchain-0.3.3\daisytoolchain-0.3.3\windows\arm-none-eabi\include\c++\10.2.1\bits\stl_algobase.h **** 		_ForwardIterator2 __first2)
 203:c:\users\matth\documents\daisytoolchain-0.3.3\daisytoolchain-0.3.3\windows\arm-none-eabi\include\c++\10.2.1\bits\stl_algobase.h ****     {
 204:c:\users\matth\documents\daisytoolchain-0.3.3\daisytoolchain-0.3.3\windows\arm-none-eabi\include\c++\10.2.1\bits\stl_algobase.h ****       // concept requirements
 205:c:\users\matth\documents\daisytoolchain-0.3.3\daisytoolchain-0.3.3\windows\arm-none-eabi\include\c++\10.2.1\bits\stl_algobase.h ****       __glibcxx_function_requires(_Mutable_ForwardIteratorConcept<
 206:c:\users\matth\documents\daisytoolchain-0.3.3\daisytoolchain-0.3.3\windows\arm-none-eabi\include\c++\10.2.1\bits\stl_algobase.h **** 				  _ForwardIterator1>)
 207:c:\users\matth\documents\daisytoolchain-0.3.3\daisytoolchain-0.3.3\windows\arm-none-eabi\include\c++\10.2.1\bits\stl_algobase.h ****       __glibcxx_function_requires(_Mutable_ForwardIteratorConcept<
 208:c:\users\matth\documents\daisytoolchain-0.3.3\daisytoolchain-0.3.3\windows\arm-none-eabi\include\c++\10.2.1\bits\stl_algobase.h **** 				  _ForwardIterator2>)
 209:c:\users\matth\documents\daisytoolchain-0.3.3\daisytoolchain-0.3.3\windows\arm-none-eabi\include\c++\10.2.1\bits\stl_algobase.h ****       __glibcxx_requires_valid_range(__first1, __last1);
 210:c:\users\matth\documents\daisytoolchain-0.3.3\daisytoolchain-0.3.3\windows\arm-none-eabi\include\c++\10.2.1\bits\stl_algobase.h **** 
 211:c:\users\matth\documents\daisytoolchain-0.3.3\daisytoolchain-0.3.3\windows\arm-none-eabi\include\c++\10.2.1\bits\stl_algobase.h ****       for (; __first1 != __last1; ++__first1, (void)++__first2)
 212:c:\users\matth\documents\daisytoolchain-0.3.3\daisytoolchain-0.3.3\windows\arm-none-eabi\include\c++\10.2.1\bits\stl_algobase.h **** 	std::iter_swap(__first1, __first2);
 213:c:\users\matth\documents\daisytoolchain-0.3.3\daisytoolchain-0.3.3\windows\arm-none-eabi\include\c++\10.2.1\bits\stl_algobase.h ****       return __first2;
 214:c:\users\matth\documents\daisytoolchain-0.3.3\daisytoolchain-0.3.3\windows\arm-none-eabi\include\c++\10.2.1\bits\stl_algobase.h ****     }
 215:c:\users\matth\documents\daisytoolchain-0.3.3\daisytoolchain-0.3.3\windows\arm-none-eabi\include\c++\10.2.1\bits\stl_algobase.h **** 
 216:c:\users\matth\documents\daisytoolchain-0.3.3\daisytoolchain-0.3.3\windows\arm-none-eabi\include\c++\10.2.1\bits\stl_algobase.h ****   /**
 217:c:\users\matth\documents\daisytoolchain-0.3.3\daisytoolchain-0.3.3\windows\arm-none-eabi\include\c++\10.2.1\bits\stl_algobase.h ****    *  @brief This does what you think it does.
 218:c:\users\matth\documents\daisytoolchain-0.3.3\daisytoolchain-0.3.3\windows\arm-none-eabi\include\c++\10.2.1\bits\stl_algobase.h ****    *  @ingroup sorting_algorithms
 219:c:\users\matth\documents\daisytoolchain-0.3.3\daisytoolchain-0.3.3\windows\arm-none-eabi\include\c++\10.2.1\bits\stl_algobase.h ****    *  @param  __a  A thing of arbitrary type.
 220:c:\users\matth\documents\daisytoolchain-0.3.3\daisytoolchain-0.3.3\windows\arm-none-eabi\include\c++\10.2.1\bits\stl_algobase.h ****    *  @param  __b  Another thing of arbitrary type.
 221:c:\users\matth\documents\daisytoolchain-0.3.3\daisytoolchain-0.3.3\windows\arm-none-eabi\include\c++\10.2.1\bits\stl_algobase.h ****    *  @return   The lesser of the parameters.
 222:c:\users\matth\documents\daisytoolchain-0.3.3\daisytoolchain-0.3.3\windows\arm-none-eabi\include\c++\10.2.1\bits\stl_algobase.h ****    *
 223:c:\users\matth\documents\daisytoolchain-0.3.3\daisytoolchain-0.3.3\windows\arm-none-eabi\include\c++\10.2.1\bits\stl_algobase.h ****    *  This is the simple classic generic implementation.  It will work on
 224:c:\users\matth\documents\daisytoolchain-0.3.3\daisytoolchain-0.3.3\windows\arm-none-eabi\include\c++\10.2.1\bits\stl_algobase.h ****    *  temporary expressions, since they are only evaluated once, unlike a
 225:c:\users\matth\documents\daisytoolchain-0.3.3\daisytoolchain-0.3.3\windows\arm-none-eabi\include\c++\10.2.1\bits\stl_algobase.h ****    *  preprocessor macro.
 226:c:\users\matth\documents\daisytoolchain-0.3.3\daisytoolchain-0.3.3\windows\arm-none-eabi\include\c++\10.2.1\bits\stl_algobase.h ****   */
 227:c:\users\matth\documents\daisytoolchain-0.3.3\daisytoolchain-0.3.3\windows\arm-none-eabi\include\c++\10.2.1\bits\stl_algobase.h ****   template<typename _Tp>
 228:c:\users\matth\documents\daisytoolchain-0.3.3\daisytoolchain-0.3.3\windows\arm-none-eabi\include\c++\10.2.1\bits\stl_algobase.h ****     _GLIBCXX14_CONSTEXPR
 229:c:\users\matth\documents\daisytoolchain-0.3.3\daisytoolchain-0.3.3\windows\arm-none-eabi\include\c++\10.2.1\bits\stl_algobase.h ****     inline const _Tp&
 230:c:\users\matth\documents\daisytoolchain-0.3.3\daisytoolchain-0.3.3\windows\arm-none-eabi\include\c++\10.2.1\bits\stl_algobase.h ****     min(const _Tp& __a, const _Tp& __b)
 789              		.loc 12 230 5 view .LVU241
 790              		.loc 12 230 5 is_stmt 0 view .LVU242
 791              	.LBE468:
 514:../DaisyExamples/libDaisy//src/util/FixedCapStr.h ****     {
 515:../DaisyExamples/libDaisy//src/util/FixedCapStr.h ****         this->size_ = std::min(this->strlen(str), capacity);
 792              		.loc 11 515 21 view .LVU243
 793 023a 1492     		str	r2, [sp, #80]
 794              	.LVL55:
 795              	.LBB469:
 796              	.LBI469:
 414:../DaisyExamples/libDaisy//src/util/FixedCapStr.h ****     {
 797              		.loc 11 414 5 is_stmt 1 view .LVU244
ARM GAS  C:\Users\matth\AppData\Local\Temp\ccy9EQ3E.s 			page 48


 414:../DaisyExamples/libDaisy//src/util/FixedCapStr.h ****     {
 798              		.loc 11 414 5 is_stmt 0 view .LVU245
 799              	.LBE469:
 800              	.LBE472:
 801              	.LBE475:
 802              	.LBE598:
 803              	.LBE775:
 416:../DaisyExamples/libDaisy//src/util/FixedCapStr.h ****         {
 804              		.loc 11 416 19 is_stmt 1 view .LVU246
 805              	.LBB776:
  87:test1.cpp     **** 		FixedCapStr<16> str1("");
  88:test1.cpp     **** 		str1.AppendFloat(analogReading1);
 806              		.loc 6 88 3 view .LVU247
 807              	.LBB599:
 808              	.LBI477:
 137:../DaisyExamples/libDaisy//src/util/FixedCapStr.h ****                                int   maxNumDigits      = 2,
 809              		.loc 11 137 20 view .LVU248
 810              	.LBB587:
 811              	.LBB523:
 142:../DaisyExamples/libDaisy//src/util/FixedCapStr.h ****         {
 812              		.loc 11 142 9 is_stmt 0 view .LVU249
 813 023c F1EE10FA 		vmrs	APSR_nzcv, FPSCR
 814              	.LBE523:
 815              	.LBE587:
 816              	.LBE599:
 817              	.LBB600:
 818              	.LBB476:
 819              	.LBB473:
 820              	.LBB470:
 821              	.LBB466:
 822              	.LBB465:
  17:../DaisyExamples/libDaisy//src/util/FixedCapStr.h ****     {
 823              		.loc 11 17 42 view .LVU250
 824 0240 CDE91505 		strd	r0, r5, [sp, #84]
 825              	.LBE465:
 826              	.LBE466:
 827              	.LBE470:
 513:../DaisyExamples/libDaisy//src/util/FixedCapStr.h ****     {
 828              		.loc 11 513 50 view .LVU251
 829 0244 C5E90022 		strd	r2, r2, [r5]
 830 0248 C5E90222 		strd	r2, r2, [r5, #8]
 831              	.LBE473:
 832              	.LBE476:
 833              	.LBE600:
 834              	.LBB601:
 835              	.LBB588:
 836              	.LBB524:
 142:../DaisyExamples/libDaisy//src/util/FixedCapStr.h ****         {
 837              		.loc 11 142 9 view .LVU252
 838 024c 00F03B81 		beq	.L97
 839              	.LBE524:
 156:../DaisyExamples/libDaisy//src/util/FixedCapStr.h ****         {
 840              		.loc 11 156 9 view .LVU253
 841 0250 B5EEC08A 		vcmpe.f32	s16, #0
 842 0254 F1EE10FA 		vmrs	APSR_nzcv, FPSCR
 843 0258 00F19081 		bmi	.L98
 844 025c 1046     		mov	r0, r2
ARM GAS  C:\Users\matth\AppData\Local\Temp\ccy9EQ3E.s 			page 49


 845              	.LVL56:
 846              	.L28:
 847              	.LBB525:
 194:../DaisyExamples/libDaisy//src/util/FixedCapStr.h ****         }
 848              		.loc 11 194 19 view .LVU254
 849 025e 9FED2B7A 		vldr.32	s14, .L103+20
 850              	.LBE525:
 208:../DaisyExamples/libDaisy//src/util/FixedCapStr.h **** 
 851              		.loc 11 208 13 view .LVU255
 852 0262 0346     		mov	r3, r0
 208:../DaisyExamples/libDaisy//src/util/FixedCapStr.h **** 
 853              		.loc 11 208 37 view .LVU256
 854 0264 DFED2A7A 		vldr.32	s15, .L103+24
 208:../DaisyExamples/libDaisy//src/util/FixedCapStr.h **** 
 855              		.loc 11 208 13 view .LVU257
 856 0268 4FF0020E 		mov	lr, #2
 857              	.LBB526:
 194:../DaisyExamples/libDaisy//src/util/FixedCapStr.h ****         }
 858              		.loc 11 194 19 view .LVU258
 859 026c 38EE078A 		vadd.f32	s16, s16, s14
 860              	.LVL57:
 194:../DaisyExamples/libDaisy//src/util/FixedCapStr.h ****         }
 861              		.loc 11 194 19 view .LVU259
 862              	.LBE526:
 208:../DaisyExamples/libDaisy//src/util/FixedCapStr.h **** 
 863              		.loc 11 208 13 view .LVU260
 864 0270 4FF01009 		mov	r9, #16
 208:../DaisyExamples/libDaisy//src/util/FixedCapStr.h **** 
 865              		.loc 11 208 37 view .LVU261
 866 0274 68EE277A 		vmul.f32	s15, s16, s15
 207:../DaisyExamples/libDaisy//src/util/FixedCapStr.h ****         int afterDecPt  = int(value * factor);
 867              		.loc 11 207 13 view .LVU262
 868 0278 BDEEC87A 		vcvt.s32.f32	s14, s16
 208:../DaisyExamples/libDaisy//src/util/FixedCapStr.h **** 
 869              		.loc 11 208 13 view .LVU263
 870 027c FDEEE77A 		vcvt.s32.f32	s15, s15
 207:../DaisyExamples/libDaisy//src/util/FixedCapStr.h ****         int afterDecPt  = int(value * factor);
 871              		.loc 11 207 13 view .LVU264
 872 0280 17EE101A 		vmov	r1, s14	@ int
 873              	.LVL58:
 208:../DaisyExamples/libDaisy//src/util/FixedCapStr.h **** 
 874              		.loc 11 208 13 view .LVU265
 875 0284 17EE902A 		vmov	r2, s15	@ int
 876              	.LVL59:
 877              	.LBB527:
 212:../DaisyExamples/libDaisy//src/util/FixedCapStr.h ****         {
 878              		.loc 11 212 26 is_stmt 1 view .LVU266
 879              	.L31:
 212:../DaisyExamples/libDaisy//src/util/FixedCapStr.h ****         {
 880              		.loc 11 212 9 view .LVU267
 881              	.LBB528:
 215:../DaisyExamples/libDaisy//src/util/FixedCapStr.h ****             if((rem == 0) && (omitTrailingZeros))
 882              		.loc 11 215 28 is_stmt 0 view .LVU268
 883 0288 224F     		ldr	r7, .L103+28
 884 028a 4FEAE27B 		asr	fp, r2, #31
 885 028e 9446     		mov	ip, r2
 886              	.LBB529:
ARM GAS  C:\Users\matth\AppData\Local\Temp\ccy9EQ3E.s 			page 50


 887              	.LBB530:
  87:../DaisyExamples/libDaisy//src/util/FixedCapStr.h ****         {
 888              		.loc 11 87 9 view .LVU269
 889 0290 9945     		cmp	r9, r3
 890              	.LBE530:
 891              	.LBE529:
 215:../DaisyExamples/libDaisy//src/util/FixedCapStr.h ****             if((rem == 0) && (omitTrailingZeros))
 892              		.loc 11 215 28 view .LVU270
 893 0292 87FB02A2 		smull	r10, r2, r7, r2
 894              	.LVL60:
 895              	.LBB536:
 896              	.LBB531:
  90:../DaisyExamples/libDaisy//src/util/FixedCapStr.h ****             size_++;
 897              		.loc 11 90 32 view .LVU271
 898 0296 4FF00008 		mov	r8, #0
 899              	.LBE531:
 900              	.LBE536:
 215:../DaisyExamples/libDaisy//src/util/FixedCapStr.h ****             if((rem == 0) && (omitTrailingZeros))
 901              		.loc 11 215 28 view .LVU272
 902 029a CBEBA202 		rsb	r2, fp, r2, asr #2
 903              	.LVL61:
 904              	.LBB537:
 905              	.LBI529:
  85:../DaisyExamples/libDaisy//src/util/FixedCapStr.h ****     {
 906              		.loc 11 85 20 is_stmt 1 view .LVU273
  85:../DaisyExamples/libDaisy//src/util/FixedCapStr.h ****     {
 907              		.loc 11 85 20 is_stmt 0 view .LVU274
 908              	.LBE537:
 909              	.LBE528:
 212:../DaisyExamples/libDaisy//src/util/FixedCapStr.h ****         {
 910              		.loc 11 212 26 is_stmt 1 view .LVU275
 911              	.LBB542:
 912              	.LBB538:
 913              	.LBB532:
  87:../DaisyExamples/libDaisy//src/util/FixedCapStr.h ****         {
 914              		.loc 11 87 9 is_stmt 0 view .LVU276
 915 029e 11D9     		bls	.L30
 916              	.LBE532:
 917              	.LBE538:
 214:../DaisyExamples/libDaisy//src/util/FixedCapStr.h ****             afterDecPt     = afterDecPt / 10;
 918              		.loc 11 214 24 view .LVU277
 919 02a0 02EB8207 		add	r7, r2, r2, lsl #2
 920 02a4 ACEB470C 		sub	ip, ip, r7, lsl #1
 921              	.LVL62:
 922              	.LBB539:
 923              	.LBB533:
  89:../DaisyExamples/libDaisy//src/util/FixedCapStr.h ****             buffer_[size_ + 1] = '\0';
 924              		.loc 11 89 32 view .LVU278
 925 02a8 169F     		ldr	r7, [sp, #88]
 926              	.LBE533:
 927              	.LBE539:
 218:../DaisyExamples/libDaisy//src/util/FixedCapStr.h ****         }
 928              		.loc 11 218 19 view .LVU279
 929 02aa 0CF1300C 		add	ip, ip, #48
 930              	.LBB540:
 931              	.LBB534:
  89:../DaisyExamples/libDaisy//src/util/FixedCapStr.h ****             buffer_[size_ + 1] = '\0';
ARM GAS  C:\Users\matth\AppData\Local\Temp\ccy9EQ3E.s 			page 51


 932              		.loc 11 89 32 view .LVU280
 933 02ae 07F803C0 		strb	ip, [r7, r3]
  90:../DaisyExamples/libDaisy//src/util/FixedCapStr.h ****             size_++;
 934              		.loc 11 90 32 view .LVU281
 935 02b2 149F     		ldr	r7, [sp, #80]
 936 02b4 169B     		ldr	r3, [sp, #88]
 937 02b6 3B44     		add	r3, r3, r7
 938 02b8 83F80180 		strb	r8, [r3, #1]
 939              	.LBE534:
 940              	.LBE540:
 941              	.LBE542:
 942              	.LBE527:
 943              	.LBB544:
 944              	.LBB545:
  87:../DaisyExamples/libDaisy//src/util/FixedCapStr.h ****         {
 945              		.loc 11 87 20 view .LVU282
 946 02bc DDE91439 		ldrd	r3, r9, [sp, #80]
 947              	.LBE545:
 948              	.LBE544:
 949              	.LBB548:
 950              	.LBB543:
 951              	.LBB541:
 952              	.LBB535:
  91:../DaisyExamples/libDaisy//src/util/FixedCapStr.h ****         }
 953              		.loc 11 91 13 view .LVU283
 954 02c0 0133     		adds	r3, r3, #1
 955 02c2 1493     		str	r3, [sp, #80]
 956              	.L30:
 957              	.LBE535:
 958              	.LBE541:
 959              	.LBE543:
 212:../DaisyExamples/libDaisy//src/util/FixedCapStr.h ****         {
 960              		.loc 11 212 26 view .LVU284
 961 02c4 BEF1010F 		cmp	lr, #1
 962 02c8 4FF0010E 		mov	lr, #1
 963              	.LVL63:
 212:../DaisyExamples/libDaisy//src/util/FixedCapStr.h ****         {
 964              		.loc 11 212 26 view .LVU285
 965 02cc DCD1     		bne	.L31
 966              	.LBE548:
 221:../DaisyExamples/libDaisy//src/util/FixedCapStr.h ****             Append('.');
 967              		.loc 11 221 9 view .LVU286
 968 02ce 8342     		cmp	r3, r0
 969 02d0 0FD0     		beq	.L32
 970              	.LVL64:
 971              	.LBB549:
 972              	.LBI544:
  85:../DaisyExamples/libDaisy//src/util/FixedCapStr.h ****     {
 973              		.loc 11 85 20 is_stmt 1 view .LVU287
 974              	.LBB546:
  87:../DaisyExamples/libDaisy//src/util/FixedCapStr.h ****         {
 975              		.loc 11 87 9 is_stmt 0 view .LVU288
 976 02d2 9945     		cmp	r9, r3
 977 02d4 40F28481 		bls	.L33
  89:../DaisyExamples/libDaisy//src/util/FixedCapStr.h ****             buffer_[size_ + 1] = '\0';
 978              		.loc 11 89 32 view .LVU289
 979 02d8 169A     		ldr	r2, [sp, #88]
ARM GAS  C:\Users\matth\AppData\Local\Temp\ccy9EQ3E.s 			page 52


 980              	.LVL65:
  89:../DaisyExamples/libDaisy//src/util/FixedCapStr.h ****             buffer_[size_ + 1] = '\0';
 981              		.loc 11 89 32 view .LVU290
 982 02da 2E27     		movs	r7, #46
 983 02dc D754     		strb	r7, [r2, r3]
  90:../DaisyExamples/libDaisy//src/util/FixedCapStr.h ****             size_++;
 984              		.loc 11 90 32 view .LVU291
 985 02de 0022     		movs	r2, #0
 986 02e0 149F     		ldr	r7, [sp, #80]
 987 02e2 169B     		ldr	r3, [sp, #88]
 988 02e4 3B44     		add	r3, r3, r7
 989 02e6 5A70     		strb	r2, [r3, #1]
  91:../DaisyExamples/libDaisy//src/util/FixedCapStr.h ****         }
 990              		.loc 11 91 13 view .LVU292
 991 02e8 149B     		ldr	r3, [sp, #80]
 992              	.LBE546:
 993              	.LBE549:
 994              	.LBB550:
 995              	.LBB551:
 996              	.LBB552:
  87:../DaisyExamples/libDaisy//src/util/FixedCapStr.h ****         {
 997              		.loc 11 87 20 view .LVU293
 998 02ea DDF85490 		ldr	r9, [sp, #84]
 999              	.LBE552:
 1000              	.LBE551:
 1001              	.LBE550:
 1002              	.LBB571:
 1003              	.LBB547:
  91:../DaisyExamples/libDaisy//src/util/FixedCapStr.h ****         }
 1004              		.loc 11 91 13 view .LVU294
 1005 02ee 7344     		add	r3, r3, lr
 1006 02f0 1493     		str	r3, [sp, #80]
 1007              	.LVL66:
 1008              	.L32:
  91:../DaisyExamples/libDaisy//src/util/FixedCapStr.h ****         }
 1009              		.loc 11 91 13 view .LVU295
 1010              	.LBE547:
 1011              	.LBE571:
 1012              	.LBB572:
 224:../DaisyExamples/libDaisy//src/util/FixedCapStr.h ****             Append('0');
 1013              		.loc 11 224 9 view .LVU296
 1014 02f2 99B9     		cbnz	r1, .L35
 1015 02f4 54E1     		b	.L99
 1016              	.L104:
 1017 02f6 00BF     		.align	2
 1018              	.L103:
 1019 02f8 00000000 		.word	.LANCHOR0
 1020 02fc 00000000 		.word	_Z13AudioCallbackPKPKfPPfj
 1021 0300 00000000 		.word	.LANCHOR1
 1022 0304 18000000 		.word	.LANCHOR0+24
 1023 0308 08000000 		.word	.LC3
 1024 030c 0AD7A33B 		.word	1000593162
 1025 0310 0000C842 		.word	1120403456
 1026 0314 67666666 		.word	1717986919
 1027              	.LVL67:
 1028              	.L38:
 1029              	.LBB554:
ARM GAS  C:\Users\matth\AppData\Local\Temp\ccy9EQ3E.s 			page 53


 1030              	.LBB555:
 1031              	.LBB556:
 1032              	.LBB557:
  87:../DaisyExamples/libDaisy//src/util/FixedCapStr.h ****         {
 1033              		.loc 11 87 20 view .LVU297
 1034 0318 DDF85490 		ldr	r9, [sp, #84]
 1035              	.L35:
 1036              	.LVL68:
  87:../DaisyExamples/libDaisy//src/util/FixedCapStr.h ****         {
 1037              		.loc 11 87 20 view .LVU298
 1038              	.LBE557:
 1039              	.LBE556:
 231:../DaisyExamples/libDaisy//src/util/FixedCapStr.h ****                 Append(rem + '0');
 1040              		.loc 11 231 32 view .LVU299
 1041 031c B24F     		ldr	r7, .L105
 1042 031e CA17     		asrs	r2, r1, #31
 1043              	.LBB563:
 1044              	.LBB558:
  87:../DaisyExamples/libDaisy//src/util/FixedCapStr.h ****         {
 1045              		.loc 11 87 9 view .LVU300
 1046 0320 4B45     		cmp	r3, r9
  90:../DaisyExamples/libDaisy//src/util/FixedCapStr.h ****             size_++;
 1047              		.loc 11 90 32 view .LVU301
 1048 0322 4FF0000C 		mov	ip, #0
 1049              	.LBE558:
 1050              	.LBE563:
 231:../DaisyExamples/libDaisy//src/util/FixedCapStr.h ****                 Append(rem + '0');
 1051              		.loc 11 231 32 view .LVU302
 1052 0326 87FB01E7 		smull	lr, r7, r7, r1
 1053 032a C2EBA702 		rsb	r2, r2, r7, asr #2
 1054              	.LVL69:
 1055              	.LBB564:
 1056              	.LBI556:
  85:../DaisyExamples/libDaisy//src/util/FixedCapStr.h ****     {
 1057              		.loc 11 85 20 is_stmt 1 view .LVU303
 1058              	.LBE564:
 230:../DaisyExamples/libDaisy//src/util/FixedCapStr.h ****                 beforeDecPt    = beforeDecPt / 10;
 1059              		.loc 11 230 28 is_stmt 0 view .LVU304
 1060 032e 02EB8207 		add	r7, r2, r2, lsl #2
 1061              	.LBB565:
 1062              	.LBB559:
  87:../DaisyExamples/libDaisy//src/util/FixedCapStr.h ****         {
 1063              		.loc 11 87 9 view .LVU305
 1064 0332 0CD2     		bcs	.L39
  87:../DaisyExamples/libDaisy//src/util/FixedCapStr.h ****         {
 1065              		.loc 11 87 9 view .LVU306
 1066              	.LBE559:
 1067              	.LBE565:
 230:../DaisyExamples/libDaisy//src/util/FixedCapStr.h ****                 beforeDecPt    = beforeDecPt / 10;
 1068              		.loc 11 230 28 view .LVU307
 1069 0334 A1EB4701 		sub	r1, r1, r7, lsl #1
 1070              	.LVL70:
 1071              	.LBB566:
 1072              	.LBB560:
  89:../DaisyExamples/libDaisy//src/util/FixedCapStr.h ****             buffer_[size_ + 1] = '\0';
 1073              		.loc 11 89 32 view .LVU308
 1074 0338 169F     		ldr	r7, [sp, #88]
ARM GAS  C:\Users\matth\AppData\Local\Temp\ccy9EQ3E.s 			page 54


 1075              	.LBE560:
 1076              	.LBE566:
 232:../DaisyExamples/libDaisy//src/util/FixedCapStr.h ****             }
 1077              		.loc 11 232 23 view .LVU309
 1078 033a 3031     		adds	r1, r1, #48
 1079              	.LBB567:
 1080              	.LBB561:
  89:../DaisyExamples/libDaisy//src/util/FixedCapStr.h ****             buffer_[size_ + 1] = '\0';
 1081              		.loc 11 89 32 view .LVU310
 1082 033c F954     		strb	r1, [r7, r3]
  90:../DaisyExamples/libDaisy//src/util/FixedCapStr.h ****             size_++;
 1083              		.loc 11 90 32 view .LVU311
 1084 033e 1499     		ldr	r1, [sp, #80]
 1085 0340 169B     		ldr	r3, [sp, #88]
 1086 0342 0B44     		add	r3, r3, r1
 1087 0344 83F801C0 		strb	ip, [r3, #1]
  91:../DaisyExamples/libDaisy//src/util/FixedCapStr.h ****         }
 1088              		.loc 11 91 13 view .LVU312
 1089 0348 149B     		ldr	r3, [sp, #80]
 1090 034a 0133     		adds	r3, r3, #1
 1091 034c 1493     		str	r3, [sp, #80]
 1092              	.L39:
 1093              	.LVL71:
  91:../DaisyExamples/libDaisy//src/util/FixedCapStr.h ****         }
 1094              		.loc 11 91 13 view .LVU313
 1095              	.LBE561:
 1096              	.LBE567:
 1097              	.LBE555:
 228:../DaisyExamples/libDaisy//src/util/FixedCapStr.h ****             {
 1098              		.loc 11 228 31 is_stmt 1 view .LVU314
 1099              	.LBB569:
 1100              	.LBB568:
 1101              	.LBB562:
  87:../DaisyExamples/libDaisy//src/util/FixedCapStr.h ****         {
 1102              		.loc 11 87 20 is_stmt 0 view .LVU315
 1103 034e 1146     		mov	r1, r2
 1104              	.LBE562:
 1105              	.LBE568:
 1106              	.LBE569:
 228:../DaisyExamples/libDaisy//src/util/FixedCapStr.h ****             {
 1107              		.loc 11 228 31 view .LVU316
 1108 0350 002A     		cmp	r2, #0
 1109 0352 E1D1     		bne	.L38
 1110              	.LVL72:
 1111              	.L36:
 228:../DaisyExamples/libDaisy//src/util/FixedCapStr.h ****             {
 1112              		.loc 11 228 31 view .LVU317
 1113              	.LBE554:
 1114              	.LBE572:
 235:../DaisyExamples/libDaisy//src/util/FixedCapStr.h ****         ReverseSection(firstDigit, lastDigit);
 1115              		.loc 11 235 20 view .LVU318
 1116 0354 013B     		subs	r3, r3, #1
 1117              	.L37:
 1118              	.LVL73:
 1119              	.LBB573:
 1120              	.LBI573:
 309:../DaisyExamples/libDaisy//src/util/FixedCapStr.h ****     {
ARM GAS  C:\Users\matth\AppData\Local\Temp\ccy9EQ3E.s 			page 55


 1121              		.loc 11 309 20 is_stmt 1 view .LVU319
 309:../DaisyExamples/libDaisy//src/util/FixedCapStr.h ****     {
 1122              		.loc 11 309 20 is_stmt 0 view .LVU320
 1123 0356 9842     		cmp	r0, r3
 1124 0358 0246     		mov	r2, r0
 1125 035a 28BF     		it	cs
 1126 035c 1A46     		movcs	r2, r3
 1127              	.LVL74:
 1128              	.LBB574:
 313:../DaisyExamples/libDaisy//src/util/FixedCapStr.h ****         {
 1129              		.loc 11 313 24 is_stmt 1 view .LVU321
 1130 035e 9A42     		cmp	r2, r3
 1131 0360 09D2     		bcs	.L24
 1132              	.LVL75:
 1133              	.L40:
 1134              	.LBB575:
 315:../DaisyExamples/libDaisy//src/util/FixedCapStr.h ****             buffer_[lastIdx]  = buffer_[firstIdx];
 1135              		.loc 11 315 33 is_stmt 0 view .LVU322
 1136 0362 1699     		ldr	r1, [sp, #88]
 316:../DaisyExamples/libDaisy//src/util/FixedCapStr.h ****             buffer_[firstIdx] = tmp;
 1137              		.loc 11 316 40 view .LVU323
 1138 0364 8F5C     		ldrb	r7, [r1, r2]	@ zero_extendqisi2
 315:../DaisyExamples/libDaisy//src/util/FixedCapStr.h ****             buffer_[lastIdx]  = buffer_[firstIdx];
 1139              		.loc 11 315 22 view .LVU324
 1140 0366 C85C     		ldrb	r0, [r1, r3]	@ zero_extendqisi2
 1141              	.LVL76:
 316:../DaisyExamples/libDaisy//src/util/FixedCapStr.h ****             buffer_[firstIdx] = tmp;
 1142              		.loc 11 316 31 view .LVU325
 1143 0368 CF54     		strb	r7, [r1, r3]
 319:../DaisyExamples/libDaisy//src/util/FixedCapStr.h ****         }
 1144              		.loc 11 319 13 view .LVU326
 1145 036a 013B     		subs	r3, r3, #1
 1146              	.LVL77:
 317:../DaisyExamples/libDaisy//src/util/FixedCapStr.h ****             firstIdx++;
 1147              		.loc 11 317 31 view .LVU327
 1148 036c 1699     		ldr	r1, [sp, #88]
 1149 036e 8854     		strb	r0, [r1, r2]
 318:../DaisyExamples/libDaisy//src/util/FixedCapStr.h ****             lastIdx--;
 1150              		.loc 11 318 13 view .LVU328
 1151 0370 0132     		adds	r2, r2, #1
 1152              	.LVL78:
 318:../DaisyExamples/libDaisy//src/util/FixedCapStr.h ****             lastIdx--;
 1153              		.loc 11 318 13 view .LVU329
 1154              	.LBE575:
 313:../DaisyExamples/libDaisy//src/util/FixedCapStr.h ****         {
 1155              		.loc 11 313 24 is_stmt 1 view .LVU330
 1156 0372 9A42     		cmp	r2, r3
 1157 0374 F5D3     		bcc	.L40
 1158              	.LVL79:
 1159              	.L24:
 313:../DaisyExamples/libDaisy//src/util/FixedCapStr.h ****         {
 1160              		.loc 11 313 24 is_stmt 0 view .LVU331
 1161              	.LBE574:
 1162              	.LBE573:
 1163              	.LBE588:
 1164              	.LBE601:
  89:test1.cpp     **** 		FixedCapStr<16> str2("");
ARM GAS  C:\Users\matth\AppData\Local\Temp\ccy9EQ3E.s 			page 56


 1165              		.loc 6 89 3 is_stmt 1 view .LVU332
 1166              	.LBB602:
 1167              	.LBI602:
 512:../DaisyExamples/libDaisy//src/util/FixedCapStr.h ****     : FixedCapStrBase<CharType>(buffer_, capacity)
 1168              		.loc 11 512 15 view .LVU333
 1169              	.LBB603:
 1170              	.LBB604:
 1171              	.LBB605:
 1172              	.LBI605:
  16:../DaisyExamples/libDaisy//src/util/FixedCapStr.h ****     : capacity_(capacity), buffer_(buffer)
 1173              		.loc 11 16 15 view .LVU334
 1174              	.LBE605:
 1175              	.LBE604:
 1176              	.LBE603:
 1177              	.LBE602:
 1178              	.LBB623:
 1179              	.LBB624:
 1180              	.LBB625:
 142:../DaisyExamples/libDaisy//src/util/FixedCapStr.h ****         {
 1181              		.loc 11 142 9 is_stmt 0 view .LVU335
 1182 0376 B5EE400A 		vcmp.f32	s0, #0
 1183              	.LBE625:
 1184              	.LBE624:
 1185              	.LBE623:
 1186              	.LBB741:
 1187              	.LBB619:
 1188              	.LBB615:
 513:../DaisyExamples/libDaisy//src/util/FixedCapStr.h ****     {
 1189              		.loc 11 513 50 view .LVU336
 1190 037a 0021     		movs	r1, #0
 1191              	.LBB610:
 1192              	.LBB606:
 1193              	.LBB607:
  17:../DaisyExamples/libDaisy//src/util/FixedCapStr.h ****     {
 1194              		.loc 11 17 42 view .LVU337
 1195 037c 1020     		movs	r0, #16
 1196              	.LBE607:
 1197              	.LBE606:
 1198              	.LBE610:
 513:../DaisyExamples/libDaisy//src/util/FixedCapStr.h ****     {
 1199              		.loc 11 513 50 view .LVU338
 1200 037e 2174     		strb	r1, [r4, #16]
 1201              	.LVL80:
 1202              	.LBB611:
 1203              	.LBI611:
 384:../DaisyExamples/libDaisy//src/util/FixedCapStr.h ****     {
 1204              		.loc 11 384 34 is_stmt 1 view .LVU339
 384:../DaisyExamples/libDaisy//src/util/FixedCapStr.h ****     {
 1205              		.loc 11 384 34 is_stmt 0 view .LVU340
 1206              	.LBE611:
 1207              	.LBE615:
 1208              	.LBE619:
 1209              	.LBE741:
 1210              	.LBE776:
 387:../DaisyExamples/libDaisy//src/util/FixedCapStr.h ****             result++;
 1211              		.loc 11 387 25 is_stmt 1 view .LVU341
 1212              	.LBB777:
ARM GAS  C:\Users\matth\AppData\Local\Temp\ccy9EQ3E.s 			page 57


 1213              	.LBB742:
 1214              	.LBB620:
 1215              	.LBB616:
 1216              	.LBB612:
 1217              	.LBI612:
 1218              		.loc 12 230 5 view .LVU342
 1219              		.loc 12 230 5 is_stmt 0 view .LVU343
 1220              	.LBE612:
 1221              	.LBE616:
 1222              	.LBE620:
 1223              	.LBE742:
 1224              	.LBB743:
 1225              	.LBB732:
 1226              	.LBB669:
 142:../DaisyExamples/libDaisy//src/util/FixedCapStr.h ****         {
 1227              		.loc 11 142 9 view .LVU344
 1228 0380 F1EE10FA 		vmrs	APSR_nzcv, FPSCR
 1229              	.LBE669:
 1230              	.LBE732:
 1231              	.LBE743:
 1232              	.LBB744:
 1233              	.LBB621:
 1234              	.LBB617:
 1235              		.loc 11 515 21 view .LVU345
 1236 0384 1C91     		str	r1, [sp, #112]
 1237              	.LVL81:
 1238              	.LBB613:
 1239              	.LBI613:
 414:../DaisyExamples/libDaisy//src/util/FixedCapStr.h ****     {
 1240              		.loc 11 414 5 is_stmt 1 view .LVU346
 414:../DaisyExamples/libDaisy//src/util/FixedCapStr.h ****     {
 1241              		.loc 11 414 5 is_stmt 0 view .LVU347
 1242              	.LBE613:
 1243              	.LBE617:
 1244              	.LBE621:
 1245              	.LBE744:
 1246              	.LBE777:
 416:../DaisyExamples/libDaisy//src/util/FixedCapStr.h ****         {
 1247              		.loc 11 416 19 is_stmt 1 view .LVU348
 1248              	.LBB778:
  90:test1.cpp     **** 		str2.AppendFloat(analogReading2);
 1249              		.loc 6 90 3 view .LVU349
 1250              	.LBB745:
 1251              	.LBI623:
 137:../DaisyExamples/libDaisy//src/util/FixedCapStr.h ****                                int   maxNumDigits      = 2,
 1252              		.loc 11 137 20 view .LVU350
 1253              	.LBE745:
 1254              	.LBB746:
 1255              	.LBB622:
 1256              	.LBB618:
 1257              	.LBB614:
 1258              	.LBB609:
 1259              	.LBB608:
  17:../DaisyExamples/libDaisy//src/util/FixedCapStr.h ****     {
 1260              		.loc 11 17 42 is_stmt 0 view .LVU351
 1261 0386 CDE91D04 		strd	r0, r4, [sp, #116]
 1262              	.LBE608:
ARM GAS  C:\Users\matth\AppData\Local\Temp\ccy9EQ3E.s 			page 58


 1263              	.LBE609:
 1264              	.LBE614:
 513:../DaisyExamples/libDaisy//src/util/FixedCapStr.h ****     {
 1265              		.loc 11 513 50 view .LVU352
 1266 038a C4E90011 		strd	r1, r1, [r4]
 1267 038e C4E90211 		strd	r1, r1, [r4, #8]
 1268              	.LBE618:
 1269              	.LBE622:
 1270              	.LBE746:
 1271              	.LBB747:
 1272              	.LBB733:
 1273              	.LBB670:
 142:../DaisyExamples/libDaisy//src/util/FixedCapStr.h ****         {
 1274              		.loc 11 142 9 view .LVU353
 1275 0392 00F0C680 		beq	.L100
 142:../DaisyExamples/libDaisy//src/util/FixedCapStr.h ****         {
 1276              		.loc 11 142 9 view .LVU354
 1277              	.LBE670:
 156:../DaisyExamples/libDaisy//src/util/FixedCapStr.h ****         {
 1278              		.loc 11 156 9 view .LVU355
 1279 0396 B5EEC00A 		vcmpe.f32	s0, #0
 1280 039a F1EE10FA 		vmrs	APSR_nzcv, FPSCR
 1281 039e 00F1F680 		bmi	.L101
 1282              	.L49:
 1283              	.LVL82:
 1284              	.LBB671:
 194:../DaisyExamples/libDaisy//src/util/FixedCapStr.h ****         }
 1285              		.loc 11 194 19 view .LVU356
 1286 03a2 9FED927A 		vldr.32	s14, .L105+4
 1287              	.LBE671:
 208:../DaisyExamples/libDaisy//src/util/FixedCapStr.h **** 
 1288              		.loc 11 208 13 view .LVU357
 1289 03a6 0B46     		mov	r3, r1
 208:../DaisyExamples/libDaisy//src/util/FixedCapStr.h **** 
 1290              		.loc 11 208 37 view .LVU358
 1291 03a8 DFED917A 		vldr.32	s15, .L105+8
 208:../DaisyExamples/libDaisy//src/util/FixedCapStr.h **** 
 1292              		.loc 11 208 13 view .LVU359
 1293 03ac 4FF0020E 		mov	lr, #2
 1294              	.LBB672:
 194:../DaisyExamples/libDaisy//src/util/FixedCapStr.h ****         }
 1295              		.loc 11 194 19 view .LVU360
 1296 03b0 30EE070A 		vadd.f32	s0, s0, s14
 1297              	.LVL83:
 194:../DaisyExamples/libDaisy//src/util/FixedCapStr.h ****         }
 1298              		.loc 11 194 19 view .LVU361
 1299              	.LBE672:
 208:../DaisyExamples/libDaisy//src/util/FixedCapStr.h **** 
 1300              		.loc 11 208 13 view .LVU362
 1301 03b4 4FF01009 		mov	r9, #16
 208:../DaisyExamples/libDaisy//src/util/FixedCapStr.h **** 
 1302              		.loc 11 208 37 view .LVU363
 1303 03b8 60EE277A 		vmul.f32	s15, s0, s15
 207:../DaisyExamples/libDaisy//src/util/FixedCapStr.h ****         int afterDecPt  = int(value * factor);
 1304              		.loc 11 207 13 view .LVU364
 1305 03bc BDEEC07A 		vcvt.s32.f32	s14, s0
 208:../DaisyExamples/libDaisy//src/util/FixedCapStr.h **** 
ARM GAS  C:\Users\matth\AppData\Local\Temp\ccy9EQ3E.s 			page 59


 1306              		.loc 11 208 13 view .LVU365
 1307 03c0 FDEEE77A 		vcvt.s32.f32	s15, s15
 207:../DaisyExamples/libDaisy//src/util/FixedCapStr.h ****         int afterDecPt  = int(value * factor);
 1308              		.loc 11 207 13 view .LVU366
 1309 03c4 17EE100A 		vmov	r0, s14	@ int
 1310              	.LVL84:
 208:../DaisyExamples/libDaisy//src/util/FixedCapStr.h **** 
 1311              		.loc 11 208 13 view .LVU367
 1312 03c8 17EE902A 		vmov	r2, s15	@ int
 1313              	.LVL85:
 1314              	.LBB673:
 212:../DaisyExamples/libDaisy//src/util/FixedCapStr.h ****         {
 1315              		.loc 11 212 26 is_stmt 1 view .LVU368
 1316              	.L52:
 212:../DaisyExamples/libDaisy//src/util/FixedCapStr.h ****         {
 1317              		.loc 11 212 9 view .LVU369
 1318              	.LBB674:
 215:../DaisyExamples/libDaisy//src/util/FixedCapStr.h ****             if((rem == 0) && (omitTrailingZeros))
 1319              		.loc 11 215 28 is_stmt 0 view .LVU370
 1320 03cc 864F     		ldr	r7, .L105
 1321 03ce 4FEAE27B 		asr	fp, r2, #31
 1322 03d2 9446     		mov	ip, r2
 1323              	.LBB675:
 1324              	.LBB676:
  87:../DaisyExamples/libDaisy//src/util/FixedCapStr.h ****         {
 1325              		.loc 11 87 9 view .LVU371
 1326 03d4 9945     		cmp	r9, r3
 1327              	.LBE676:
 1328              	.LBE675:
 215:../DaisyExamples/libDaisy//src/util/FixedCapStr.h ****             if((rem == 0) && (omitTrailingZeros))
 1329              		.loc 11 215 28 view .LVU372
 1330 03d6 87FB02A2 		smull	r10, r2, r7, r2
 1331              	.LVL86:
 1332              	.LBB682:
 1333              	.LBB677:
  90:../DaisyExamples/libDaisy//src/util/FixedCapStr.h ****             size_++;
 1334              		.loc 11 90 32 view .LVU373
 1335 03da 4FF00008 		mov	r8, #0
 1336              	.LBE677:
 1337              	.LBE682:
 215:../DaisyExamples/libDaisy//src/util/FixedCapStr.h ****             if((rem == 0) && (omitTrailingZeros))
 1338              		.loc 11 215 28 view .LVU374
 1339 03de CBEBA202 		rsb	r2, fp, r2, asr #2
 1340              	.LVL87:
 1341              	.LBB683:
 1342              	.LBI675:
  85:../DaisyExamples/libDaisy//src/util/FixedCapStr.h ****     {
 1343              		.loc 11 85 20 is_stmt 1 view .LVU375
  85:../DaisyExamples/libDaisy//src/util/FixedCapStr.h ****     {
 1344              		.loc 11 85 20 is_stmt 0 view .LVU376
 1345              	.LBE683:
 1346              	.LBE674:
 212:../DaisyExamples/libDaisy//src/util/FixedCapStr.h ****         {
 1347              		.loc 11 212 26 is_stmt 1 view .LVU377
 1348              	.LBB688:
 1349              	.LBB684:
 1350              	.LBB678:
ARM GAS  C:\Users\matth\AppData\Local\Temp\ccy9EQ3E.s 			page 60


  87:../DaisyExamples/libDaisy//src/util/FixedCapStr.h ****         {
 1351              		.loc 11 87 9 is_stmt 0 view .LVU378
 1352 03e2 11D9     		bls	.L51
 1353              	.LBE678:
 1354              	.LBE684:
 214:../DaisyExamples/libDaisy//src/util/FixedCapStr.h ****             afterDecPt     = afterDecPt / 10;
 1355              		.loc 11 214 24 view .LVU379
 1356 03e4 02EB8207 		add	r7, r2, r2, lsl #2
 1357 03e8 ACEB470C 		sub	ip, ip, r7, lsl #1
 1358              	.LVL88:
 1359              	.LBB685:
 1360              	.LBB679:
  89:../DaisyExamples/libDaisy//src/util/FixedCapStr.h ****             buffer_[size_ + 1] = '\0';
 1361              		.loc 11 89 32 view .LVU380
 1362 03ec 1E9F     		ldr	r7, [sp, #120]
 1363              	.LBE679:
 1364              	.LBE685:
 218:../DaisyExamples/libDaisy//src/util/FixedCapStr.h ****         }
 1365              		.loc 11 218 19 view .LVU381
 1366 03ee 0CF1300C 		add	ip, ip, #48
 1367              	.LBB686:
 1368              	.LBB680:
  89:../DaisyExamples/libDaisy//src/util/FixedCapStr.h ****             buffer_[size_ + 1] = '\0';
 1369              		.loc 11 89 32 view .LVU382
 1370 03f2 07F803C0 		strb	ip, [r7, r3]
  90:../DaisyExamples/libDaisy//src/util/FixedCapStr.h ****             size_++;
 1371              		.loc 11 90 32 view .LVU383
 1372 03f6 1C9F     		ldr	r7, [sp, #112]
 1373 03f8 1E9B     		ldr	r3, [sp, #120]
 1374 03fa 3B44     		add	r3, r3, r7
 1375 03fc 83F80180 		strb	r8, [r3, #1]
 1376              	.LBE680:
 1377              	.LBE686:
 1378              	.LBE688:
 1379              	.LBE673:
 1380              	.LBB690:
 1381              	.LBB691:
  87:../DaisyExamples/libDaisy//src/util/FixedCapStr.h ****         {
 1382              		.loc 11 87 20 view .LVU384
 1383 0400 DDE91C39 		ldrd	r3, r9, [sp, #112]
 1384              	.LBE691:
 1385              	.LBE690:
 1386              	.LBB694:
 1387              	.LBB689:
 1388              	.LBB687:
 1389              	.LBB681:
  91:../DaisyExamples/libDaisy//src/util/FixedCapStr.h ****         }
 1390              		.loc 11 91 13 view .LVU385
 1391 0404 0133     		adds	r3, r3, #1
 1392 0406 1C93     		str	r3, [sp, #112]
 1393              	.L51:
 1394              	.LBE681:
 1395              	.LBE687:
 1396              	.LBE689:
 212:../DaisyExamples/libDaisy//src/util/FixedCapStr.h ****         {
 1397              		.loc 11 212 26 view .LVU386
 1398 0408 BEF1010F 		cmp	lr, #1
ARM GAS  C:\Users\matth\AppData\Local\Temp\ccy9EQ3E.s 			page 61


 1399 040c 4FF0010E 		mov	lr, #1
 1400              	.LVL89:
 212:../DaisyExamples/libDaisy//src/util/FixedCapStr.h ****         {
 1401              		.loc 11 212 26 view .LVU387
 1402 0410 DCD1     		bne	.L52
 1403              	.LBE694:
 221:../DaisyExamples/libDaisy//src/util/FixedCapStr.h ****             Append('.');
 1404              		.loc 11 221 9 view .LVU388
 1405 0412 8B42     		cmp	r3, r1
 1406 0414 0FD0     		beq	.L53
 1407              	.LVL90:
 1408              	.LBB695:
 1409              	.LBI690:
  85:../DaisyExamples/libDaisy//src/util/FixedCapStr.h ****     {
 1410              		.loc 11 85 20 is_stmt 1 view .LVU389
 1411              	.LBB692:
  87:../DaisyExamples/libDaisy//src/util/FixedCapStr.h ****         {
 1412              		.loc 11 87 9 is_stmt 0 view .LVU390
 1413 0416 4B45     		cmp	r3, r9
 1414 0418 80F0DE80 		bcs	.L54
  89:../DaisyExamples/libDaisy//src/util/FixedCapStr.h ****             buffer_[size_ + 1] = '\0';
 1415              		.loc 11 89 32 view .LVU391
 1416 041c 1E9A     		ldr	r2, [sp, #120]
 1417              	.LVL91:
  89:../DaisyExamples/libDaisy//src/util/FixedCapStr.h ****             buffer_[size_ + 1] = '\0';
 1418              		.loc 11 89 32 view .LVU392
 1419 041e 2E27     		movs	r7, #46
 1420 0420 D754     		strb	r7, [r2, r3]
  90:../DaisyExamples/libDaisy//src/util/FixedCapStr.h ****             size_++;
 1421              		.loc 11 90 32 view .LVU393
 1422 0422 0022     		movs	r2, #0
 1423 0424 1C9F     		ldr	r7, [sp, #112]
 1424 0426 1E9B     		ldr	r3, [sp, #120]
 1425 0428 3B44     		add	r3, r3, r7
 1426 042a 5A70     		strb	r2, [r3, #1]
  91:../DaisyExamples/libDaisy//src/util/FixedCapStr.h ****         }
 1427              		.loc 11 91 13 view .LVU394
 1428 042c 1C9B     		ldr	r3, [sp, #112]
 1429              	.LBE692:
 1430              	.LBE695:
 1431              	.LBB696:
 1432              	.LBB697:
 1433              	.LBB698:
  87:../DaisyExamples/libDaisy//src/util/FixedCapStr.h ****         {
 1434              		.loc 11 87 20 view .LVU395
 1435 042e DDF87490 		ldr	r9, [sp, #116]
 1436              	.LBE698:
 1437              	.LBE697:
 1438              	.LBE696:
 1439              	.LBB717:
 1440              	.LBB693:
  91:../DaisyExamples/libDaisy//src/util/FixedCapStr.h ****         }
 1441              		.loc 11 91 13 view .LVU396
 1442 0432 7344     		add	r3, r3, lr
 1443 0434 1C93     		str	r3, [sp, #112]
 1444              	.LVL92:
 1445              	.L53:
ARM GAS  C:\Users\matth\AppData\Local\Temp\ccy9EQ3E.s 			page 62


  91:../DaisyExamples/libDaisy//src/util/FixedCapStr.h ****         }
 1446              		.loc 11 91 13 view .LVU397
 1447              	.LBE693:
 1448              	.LBE717:
 1449              	.LBB718:
 224:../DaisyExamples/libDaisy//src/util/FixedCapStr.h ****             Append('0');
 1450              		.loc 11 224 9 view .LVU398
 1451 0436 10B9     		cbnz	r0, .L56
 1452 0438 C0E0     		b	.L102
 1453              	.LVL93:
 1454              	.L59:
 1455              	.LBB700:
 1456              	.LBB701:
 1457              	.LBB702:
 1458              	.LBB703:
  87:../DaisyExamples/libDaisy//src/util/FixedCapStr.h ****         {
 1459              		.loc 11 87 20 view .LVU399
 1460 043a DDF87490 		ldr	r9, [sp, #116]
 1461              	.L56:
 1462              	.LVL94:
  87:../DaisyExamples/libDaisy//src/util/FixedCapStr.h ****         {
 1463              		.loc 11 87 20 view .LVU400
 1464              	.LBE703:
 1465              	.LBE702:
 231:../DaisyExamples/libDaisy//src/util/FixedCapStr.h ****                 Append(rem + '0');
 1466              		.loc 11 231 32 view .LVU401
 1467 043e 6A4F     		ldr	r7, .L105
 1468 0440 C217     		asrs	r2, r0, #31
 1469              	.LBB709:
 1470              	.LBB704:
  87:../DaisyExamples/libDaisy//src/util/FixedCapStr.h ****         {
 1471              		.loc 11 87 9 view .LVU402
 1472 0442 4B45     		cmp	r3, r9
  90:../DaisyExamples/libDaisy//src/util/FixedCapStr.h ****             size_++;
 1473              		.loc 11 90 32 view .LVU403
 1474 0444 4FF0000C 		mov	ip, #0
 1475              	.LBE704:
 1476              	.LBE709:
 231:../DaisyExamples/libDaisy//src/util/FixedCapStr.h ****                 Append(rem + '0');
 1477              		.loc 11 231 32 view .LVU404
 1478 0448 87FB00E7 		smull	lr, r7, r7, r0
 1479 044c C2EBA702 		rsb	r2, r2, r7, asr #2
 1480              	.LVL95:
 1481              	.LBB710:
 1482              	.LBI702:
  85:../DaisyExamples/libDaisy//src/util/FixedCapStr.h ****     {
 1483              		.loc 11 85 20 is_stmt 1 view .LVU405
 1484              	.LBE710:
 230:../DaisyExamples/libDaisy//src/util/FixedCapStr.h ****                 beforeDecPt    = beforeDecPt / 10;
 1485              		.loc 11 230 28 is_stmt 0 view .LVU406
 1486 0450 02EB8207 		add	r7, r2, r2, lsl #2
 1487              	.LBB711:
 1488              	.LBB705:
  87:../DaisyExamples/libDaisy//src/util/FixedCapStr.h ****         {
 1489              		.loc 11 87 9 view .LVU407
 1490 0454 0CD2     		bcs	.L60
  87:../DaisyExamples/libDaisy//src/util/FixedCapStr.h ****         {
ARM GAS  C:\Users\matth\AppData\Local\Temp\ccy9EQ3E.s 			page 63


 1491              		.loc 11 87 9 view .LVU408
 1492              	.LBE705:
 1493              	.LBE711:
 230:../DaisyExamples/libDaisy//src/util/FixedCapStr.h ****                 beforeDecPt    = beforeDecPt / 10;
 1494              		.loc 11 230 28 view .LVU409
 1495 0456 A0EB4700 		sub	r0, r0, r7, lsl #1
 1496              	.LVL96:
 1497              	.LBB712:
 1498              	.LBB706:
  89:../DaisyExamples/libDaisy//src/util/FixedCapStr.h ****             buffer_[size_ + 1] = '\0';
 1499              		.loc 11 89 32 view .LVU410
 1500 045a 1E9F     		ldr	r7, [sp, #120]
 1501              	.LBE706:
 1502              	.LBE712:
 232:../DaisyExamples/libDaisy//src/util/FixedCapStr.h ****             }
 1503              		.loc 11 232 23 view .LVU411
 1504 045c 3030     		adds	r0, r0, #48
 1505              	.LBB713:
 1506              	.LBB707:
  89:../DaisyExamples/libDaisy//src/util/FixedCapStr.h ****             buffer_[size_ + 1] = '\0';
 1507              		.loc 11 89 32 view .LVU412
 1508 045e F854     		strb	r0, [r7, r3]
  90:../DaisyExamples/libDaisy//src/util/FixedCapStr.h ****             size_++;
 1509              		.loc 11 90 32 view .LVU413
 1510 0460 1C98     		ldr	r0, [sp, #112]
 1511 0462 1E9B     		ldr	r3, [sp, #120]
 1512 0464 0344     		add	r3, r3, r0
 1513 0466 83F801C0 		strb	ip, [r3, #1]
  91:../DaisyExamples/libDaisy//src/util/FixedCapStr.h ****         }
 1514              		.loc 11 91 13 view .LVU414
 1515 046a 1C9B     		ldr	r3, [sp, #112]
 1516 046c 0133     		adds	r3, r3, #1
 1517 046e 1C93     		str	r3, [sp, #112]
 1518              	.L60:
 1519              	.LVL97:
  91:../DaisyExamples/libDaisy//src/util/FixedCapStr.h ****         }
 1520              		.loc 11 91 13 view .LVU415
 1521              	.LBE707:
 1522              	.LBE713:
 1523              	.LBE701:
 228:../DaisyExamples/libDaisy//src/util/FixedCapStr.h ****             {
 1524              		.loc 11 228 31 is_stmt 1 view .LVU416
 1525              	.LBB715:
 1526              	.LBB714:
 1527              	.LBB708:
  87:../DaisyExamples/libDaisy//src/util/FixedCapStr.h ****         {
 1528              		.loc 11 87 20 is_stmt 0 view .LVU417
 1529 0470 1046     		mov	r0, r2
 1530              	.LBE708:
 1531              	.LBE714:
 1532              	.LBE715:
 228:../DaisyExamples/libDaisy//src/util/FixedCapStr.h ****             {
 1533              		.loc 11 228 31 view .LVU418
 1534 0472 002A     		cmp	r2, #0
 1535 0474 E1D1     		bne	.L59
 1536              	.LVL98:
 1537              	.L57:
ARM GAS  C:\Users\matth\AppData\Local\Temp\ccy9EQ3E.s 			page 64


 228:../DaisyExamples/libDaisy//src/util/FixedCapStr.h ****             {
 1538              		.loc 11 228 31 view .LVU419
 1539              	.LBE700:
 1540              	.LBE718:
 235:../DaisyExamples/libDaisy//src/util/FixedCapStr.h ****         ReverseSection(firstDigit, lastDigit);
 1541              		.loc 11 235 20 view .LVU420
 1542 0476 013B     		subs	r3, r3, #1
 1543              	.L58:
 1544              	.LVL99:
 1545              	.LBB719:
 1546              	.LBI719:
 309:../DaisyExamples/libDaisy//src/util/FixedCapStr.h ****     {
 1547              		.loc 11 309 20 is_stmt 1 view .LVU421
 309:../DaisyExamples/libDaisy//src/util/FixedCapStr.h ****     {
 1548              		.loc 11 309 20 is_stmt 0 view .LVU422
 1549 0478 9942     		cmp	r1, r3
 1550 047a 0A46     		mov	r2, r1
 1551 047c 28BF     		it	cs
 1552 047e 1A46     		movcs	r2, r3
 1553              	.LVL100:
 1554              	.LBB720:
 313:../DaisyExamples/libDaisy//src/util/FixedCapStr.h ****         {
 1555              		.loc 11 313 24 is_stmt 1 view .LVU423
 1556 0480 9A42     		cmp	r2, r3
 1557 0482 09D2     		bcs	.L45
 1558              	.LVL101:
 1559              	.L61:
 1560              	.LBB721:
 315:../DaisyExamples/libDaisy//src/util/FixedCapStr.h ****             buffer_[lastIdx]  = buffer_[firstIdx];
 1561              		.loc 11 315 33 is_stmt 0 view .LVU424
 1562 0484 1E99     		ldr	r1, [sp, #120]
 316:../DaisyExamples/libDaisy//src/util/FixedCapStr.h ****             buffer_[firstIdx] = tmp;
 1563              		.loc 11 316 40 view .LVU425
 1564 0486 8F5C     		ldrb	r7, [r1, r2]	@ zero_extendqisi2
 315:../DaisyExamples/libDaisy//src/util/FixedCapStr.h ****             buffer_[lastIdx]  = buffer_[firstIdx];
 1565              		.loc 11 315 22 view .LVU426
 1566 0488 C85C     		ldrb	r0, [r1, r3]	@ zero_extendqisi2
 1567              	.LVL102:
 316:../DaisyExamples/libDaisy//src/util/FixedCapStr.h ****             buffer_[firstIdx] = tmp;
 1568              		.loc 11 316 31 view .LVU427
 1569 048a CF54     		strb	r7, [r1, r3]
 319:../DaisyExamples/libDaisy//src/util/FixedCapStr.h ****         }
 1570              		.loc 11 319 13 view .LVU428
 1571 048c 013B     		subs	r3, r3, #1
 1572              	.LVL103:
 317:../DaisyExamples/libDaisy//src/util/FixedCapStr.h ****             firstIdx++;
 1573              		.loc 11 317 31 view .LVU429
 1574 048e 1E99     		ldr	r1, [sp, #120]
 1575 0490 8854     		strb	r0, [r1, r2]
 318:../DaisyExamples/libDaisy//src/util/FixedCapStr.h ****             lastIdx--;
 1576              		.loc 11 318 13 view .LVU430
 1577 0492 0132     		adds	r2, r2, #1
 1578              	.LVL104:
 318:../DaisyExamples/libDaisy//src/util/FixedCapStr.h ****             lastIdx--;
 1579              		.loc 11 318 13 view .LVU431
 1580              	.LBE721:
 313:../DaisyExamples/libDaisy//src/util/FixedCapStr.h ****         {
ARM GAS  C:\Users\matth\AppData\Local\Temp\ccy9EQ3E.s 			page 65


 1581              		.loc 11 313 24 is_stmt 1 view .LVU432
 1582 0494 9A42     		cmp	r2, r3
 1583 0496 F5D3     		bcc	.L61
 1584              	.LVL105:
 1585              	.L45:
 313:../DaisyExamples/libDaisy//src/util/FixedCapStr.h ****         {
 1586              		.loc 11 313 24 is_stmt 0 view .LVU433
 1587              	.LBE720:
 1588              	.LBE719:
 1589              	.LBE733:
 1590              	.LBE747:
  91:test1.cpp     **** 		hw.Print("%d ",analogChannel);
 1591              		.loc 6 91 3 is_stmt 1 view .LVU434
 1592              	.LBB748:
 1593              	.LBI748:
 111:../DaisyExamples/libDaisy//src/daisy_seed.h ****     {
 1594              		.loc 1 111 17 view .LVU435
 1595              	.LBB749:
 113:../DaisyExamples/libDaisy//src/daisy_seed.h ****     }
 1596              		.loc 1 113 19 is_stmt 0 view .LVU436
 1597 0498 3146     		mov	r1, r6
 1598 049a 5648     		ldr	r0, .L105+12
 1599 049c FFF7FEFF 		bl	_ZN5daisy6LoggerILNS_17LoggerDestinationE1EE5PrintEPKcz
 1600              	.LVL106:
 113:../DaisyExamples/libDaisy//src/daisy_seed.h ****     }
 1601              		.loc 1 113 19 view .LVU437
 1602              	.LBE749:
 1603              	.LBE748:
  92:test1.cpp     **** 		hw.Print(str1);
 1604              		.loc 6 92 3 is_stmt 1 view .LVU438
 1605              	.LBB750:
 1606              	.LBI750:
  39:../DaisyExamples/libDaisy//src/util/FixedCapStr.h ****     constexpr const CharType* Cstr() const noexcept { return buffer_; }
 1607              		.loc 11 39 15 view .LVU439
  39:../DaisyExamples/libDaisy//src/util/FixedCapStr.h ****     constexpr const CharType* Cstr() const noexcept { return buffer_; }
 1608              		.loc 11 39 15 is_stmt 0 view .LVU440
 1609              	.LBE750:
 1610              	.LBB751:
 1611              	.LBI751:
 111:../DaisyExamples/libDaisy//src/daisy_seed.h ****     {
 1612              		.loc 1 111 17 is_stmt 1 view .LVU441
 1613              	.LBB752:
 113:../DaisyExamples/libDaisy//src/daisy_seed.h ****     }
